	.arch armv7-a
	.eabi_attribute 27, 3
	.fpu vfpv3-d16
	.eabi_attribute 20, 1
	.eabi_attribute 21, 1
	.eabi_attribute 23, 3
	.eabi_attribute 24, 1
	.eabi_attribute 25, 1
	.eabi_attribute 26, 2
	.eabi_attribute 30, 2
	.eabi_attribute 34, 1
	.eabi_attribute 18, 4
	.file	"main.cpp"
	.section	.text._Z32BrunoDevnew_glGetUniformLocationjPKc,"ax",%progbits
	.align	2
	.global	_Z32BrunoDevnew_glGetUniformLocationjPKc
	.hidden	_Z32BrunoDevnew_glGetUniformLocationjPKc
	.type	_Z32BrunoDevnew_glGetUniformLocationjPKc, %function
_Z32BrunoDevnew_glGetUniformLocationjPKc:
	.fnstart
	@ args = 0, pretend = 0, frame = 0
	@ frame_needed = 0, uses_anonymous_args = 0
	@ link register save eliminated.
	ldr	r3, .L2
.LPIC0:
	add	r3, pc, r3
	ldr	r3, [r3]
	bx	r3
.L3:
	.align	2
.L2:
	.word	.LANCHOR0-(.LPIC0+8)
	.fnend
	.size	_Z32BrunoDevnew_glGetUniformLocationjPKc, .-_Z32BrunoDevnew_glGetUniformLocationjPKc
	.section	.text.unlikely._ZL10NameWeaponi,"ax",%progbits
	.align	2
	.type	_ZL10NameWeaponi, %function
_ZL10NameWeaponi:
	.fnstart
	@ args = 0, pretend = 0, frame = 0
	@ frame_needed = 0, uses_anonymous_args = 0
	@ link register save eliminated.
	cmp	r0, #0
	beq	.L6
	cmp	r0, #1
	beq	.L7
	cmp	r0, #2
	beq	.L8
	cmp	r0, #3
	beq	.L9
	cmp	r0, #4
	beq	.L10
	cmp	r0, #5
	beq	.L11
	cmp	r0, #6
	beq	.L12
	cmp	r0, #7
	beq	.L13
	cmp	r0, #8
	beq	.L14
	cmp	r0, #9
	beq	.L15
	cmp	r0, #10
	beq	.L16
	cmp	r0, #11
	beq	.L17
	cmp	r0, #12
	beq	.L18
	cmp	r0, #13
	beq	.L19
	cmp	r0, #14
	beq	.L20
	cmp	r0, #15
	beq	.L21
	cmp	r0, #16
	beq	.L22
	cmp	r0, #17
	beq	.L23
	cmp	r0, #18
	beq	.L24
	cmp	r0, #19
	beq	.L25
	cmp	r0, #20
	beq	.L26
	cmp	r0, #21
	beq	.L27
	cmp	r0, #22
	beq	.L28
	cmp	r0, #23
	beq	.L29
	cmp	r0, #24
	beq	.L30
	cmp	r0, #25
	beq	.L31
	cmp	r0, #255
	beq	.L32
	bx	lr
.L6:
	ldr	r0, .L34
.LPIC1:
	add	r0, pc, r0
	bx	lr
.L7:
	ldr	r0, .L34+4
.LPIC2:
	add	r0, pc, r0
	bx	lr
.L8:
	ldr	r0, .L34+8
.LPIC3:
	add	r0, pc, r0
	bx	lr
.L9:
	ldr	r0, .L34+12
.LPIC4:
	add	r0, pc, r0
	bx	lr
.L10:
	ldr	r0, .L34+16
.LPIC5:
	add	r0, pc, r0
	bx	lr
.L11:
	ldr	r0, .L34+20
.LPIC6:
	add	r0, pc, r0
	bx	lr
.L12:
	ldr	r0, .L34+24
.LPIC7:
	add	r0, pc, r0
	bx	lr
.L13:
	ldr	r0, .L34+28
.LPIC8:
	add	r0, pc, r0
	bx	lr
.L14:
	ldr	r0, .L34+32
.LPIC9:
	add	r0, pc, r0
	bx	lr
.L15:
	ldr	r0, .L34+36
.LPIC10:
	add	r0, pc, r0
	bx	lr
.L16:
	ldr	r0, .L34+40
.LPIC11:
	add	r0, pc, r0
	bx	lr
.L17:
	ldr	r0, .L34+44
.LPIC12:
	add	r0, pc, r0
	bx	lr
.L18:
	ldr	r0, .L34+48
.LPIC13:
	add	r0, pc, r0
	bx	lr
.L19:
	ldr	r0, .L34+52
.LPIC14:
	add	r0, pc, r0
	bx	lr
.L20:
	ldr	r0, .L34+56
.LPIC15:
	add	r0, pc, r0
	bx	lr
.L21:
	ldr	r0, .L34+60
.LPIC16:
	add	r0, pc, r0
	bx	lr
.L22:
	ldr	r0, .L34+64
.LPIC17:
	add	r0, pc, r0
	bx	lr
.L23:
	ldr	r0, .L34+68
.LPIC18:
	add	r0, pc, r0
	bx	lr
.L24:
	ldr	r0, .L34+72
.LPIC19:
	add	r0, pc, r0
	bx	lr
.L25:
	ldr	r0, .L34+76
.LPIC20:
	add	r0, pc, r0
	bx	lr
.L26:
	ldr	r0, .L34+80
.LPIC21:
	add	r0, pc, r0
	bx	lr
.L27:
	ldr	r0, .L34+84
.LPIC22:
	add	r0, pc, r0
	bx	lr
.L28:
	ldr	r0, .L34+88
.LPIC23:
	add	r0, pc, r0
	bx	lr
.L29:
	ldr	r0, .L34+92
.LPIC24:
	add	r0, pc, r0
	bx	lr
.L30:
	ldr	r0, .L34+96
.LPIC25:
	add	r0, pc, r0
	bx	lr
.L31:
	ldr	r0, .L34+100
.LPIC26:
	add	r0, pc, r0
	bx	lr
.L32:
	ldr	r0, .L34+104
.LPIC27:
	add	r0, pc, r0
	bx	lr
.L35:
	.align	2
.L34:
	.word	.LC48-(.LPIC1+8)
	.word	.LC49-(.LPIC2+8)
	.word	.LC50-(.LPIC3+8)
	.word	.LC51-(.LPIC4+8)
	.word	.LC52-(.LPIC5+8)
	.word	.LC53-(.LPIC6+8)
	.word	.LC54-(.LPIC7+8)
	.word	.LC55-(.LPIC8+8)
	.word	.LC56-(.LPIC9+8)
	.word	.LC57-(.LPIC10+8)
	.word	.LC58-(.LPIC11+8)
	.word	.LC59-(.LPIC12+8)
	.word	.LC60-(.LPIC13+8)
	.word	.LC61-(.LPIC14+8)
	.word	.LC62-(.LPIC15+8)
	.word	.LC63-(.LPIC16+8)
	.word	.LC64-(.LPIC17+8)
	.word	.LC65-(.LPIC18+8)
	.word	.LC66-(.LPIC19+8)
	.word	.LC67-(.LPIC20+8)
	.word	.LC68-(.LPIC21+8)
	.word	.LC69-(.LPIC22+8)
	.word	.LC70-(.LPIC23+8)
	.word	.LC71-(.LPIC24+8)
	.word	.LC72-(.LPIC25+8)
	.word	.LC73-(.LPIC26+8)
	.word	.LC74-(.LPIC27+8)
	.fnend
	.size	_ZL10NameWeaponi, .-_ZL10NameWeaponi
	.section	.text._Z14_GrenadeUpdatePv,"ax",%progbits
	.align	2
	.global	_Z14_GrenadeUpdatePv
	.hidden	_Z14_GrenadeUpdatePv
	.type	_Z14_GrenadeUpdatePv, %function
_Z14_GrenadeUpdatePv:
	.fnstart
	@ args = 0, pretend = 0, frame = 0
	@ frame_needed = 0, uses_anonymous_args = 0
	@ link register save eliminated.
	cmp	r0, #0
	beq	.L37
	ldr	r2, .L41
	mov	r1, #1
	ldr	r3, .L41+4
.LPIC28:
	add	r2, pc, r2
.LPIC29:
	add	r3, pc, r3
	str	r0, [r2]
	ldr	r2, [r0, #16]
	strb	r1, [r0, #12]
	str	r2, [r3]
.L37:
	ldr	r3, .L41+8
.LPIC30:
	add	r3, pc, r3
	ldr	r3, [r3]
	bx	r3	@ indirect register sibling call
.L42:
	.align	2
.L41:
	.word	.LANCHOR1-(.LPIC28+8)
	.word	.LANCHOR2-(.LPIC29+8)
	.word	.LANCHOR3-(.LPIC30+8)
	.fnend
	.size	_Z14_GrenadeUpdatePv, .-_Z14_GrenadeUpdatePv
	.section	.text._Z9_DoUpdatePv,"ax",%progbits
	.align	2
	.global	_Z9_DoUpdatePv
	.hidden	_Z9_DoUpdatePv
	.type	_Z9_DoUpdatePv, %function
_Z9_DoUpdatePv:
	.fnstart
	@ args = 0, pretend = 0, frame = 0
	@ frame_needed = 0, uses_anonymous_args = 0
	ldr	r3, .L49
	stmfd	sp!, {r4, lr}
	.save {r4, lr}
.LPIC31:
	add	r3, pc, r3
	mov	r4, r0
	ldr	r3, [r3]
	blx	r3
	cmp	r4, #0
	ldrne	r3, .L49+4
	ldrne	r2, [r4, #20]
.LPIC32:
	addne	r3, pc, r3
	strne	r2, [r3]
	ldmfd	sp!, {r4, pc}
.L50:
	.align	2
.L49:
	.word	.LANCHOR4-(.LPIC31+8)
	.word	.LANCHOR5-(.LPIC32+8)
	.fnend
	.size	_Z9_DoUpdatePv, .-_Z9_DoUpdatePv
	.section	.text._Z6_AnogsPv,"ax",%progbits
	.align	2
	.global	_Z6_AnogsPv
	.hidden	_Z6_AnogsPv
	.type	_Z6_AnogsPv, %function
_Z6_AnogsPv:
	.fnstart
	@ args = 0, pretend = 0, frame = 0
	@ frame_needed = 0, uses_anonymous_args = 0
	@ link register save eliminated.
	bx	lr
	.fnend
	.size	_Z6_AnogsPv, .-_Z6_AnogsPv
	.section	.text._Z7_Anogs2Pv,"ax",%progbits
	.align	2
	.global	_Z7_Anogs2Pv
	.hidden	_Z7_Anogs2Pv
	.type	_Z7_Anogs2Pv, %function
_Z7_Anogs2Pv:
	.fnstart
	@ args = 0, pretend = 0, frame = 0
	@ frame_needed = 0, uses_anonymous_args = 0
	@ link register save eliminated.
	bx	lr
	.fnend
	.size	_Z7_Anogs2Pv, .-_Z7_Anogs2Pv
	.section	.text._Z8_PartidaPv,"ax",%progbits
	.align	2
	.global	_Z8_PartidaPv
	.hidden	_Z8_PartidaPv
	.type	_Z8_PartidaPv, %function
_Z8_PartidaPv:
	.fnstart
	@ args = 0, pretend = 0, frame = 0
	@ frame_needed = 0, uses_anonymous_args = 0
	@ link register save eliminated.
	mov	r0, #0
	bx	lr
	.fnend
	.size	_Z8_PartidaPv, .-_Z8_PartidaPv
	.section	.text._Z9_Partida3Pv,"ax",%progbits
	.align	2
	.global	_Z9_Partida3Pv
	.hidden	_Z9_Partida3Pv
	.type	_Z9_Partida3Pv, %function
_Z9_Partida3Pv:
	.fnstart
	@ args = 0, pretend = 0, frame = 0
	@ frame_needed = 0, uses_anonymous_args = 0
	@ link register save eliminated.
	bx	lr
	.fnend
	.size	_Z9_Partida3Pv, .-_Z9_Partida3Pv
	.section	.text._Z6_AnortPv,"ax",%progbits
	.align	2
	.global	_Z6_AnortPv
	.hidden	_Z6_AnortPv
	.type	_Z6_AnortPv, %function
_Z6_AnortPv:
	.fnstart
	@ args = 0, pretend = 0, frame = 0
	@ frame_needed = 0, uses_anonymous_args = 0
	@ link register save eliminated.
	bx	lr
	.fnend
	.size	_Z6_AnortPv, .-_Z6_AnortPv
	.section	.text._ZN10My_PatchesD2Ev,"axG",%progbits,_ZN10My_PatchesD5Ev,comdat
	.align	2
	.weak	_ZN10My_PatchesD2Ev
	.hidden	_ZN10My_PatchesD2Ev
	.type	_ZN10My_PatchesD2Ev, %function
_ZN10My_PatchesD2Ev:
	.fnstart
	@ args = 0, pretend = 0, frame = 0
	@ frame_needed = 0, uses_anonymous_args = 0
	stmfd	sp!, {r4, lr}
	.save {r4, lr}
	mov	r4, r0
	add	r0, r0, #108
	bl	_ZN11MemoryPatchD1Ev(PLT)
	add	r0, r4, #72
	bl	_ZN11MemoryPatchD1Ev(PLT)
	add	r0, r4, #36
	bl	_ZN11MemoryPatchD1Ev(PLT)
	mov	r0, r4
	bl	_ZN11MemoryPatchD1Ev(PLT)
	mov	r0, r4
	ldmfd	sp!, {r4, pc}
	.fnend
	.size	_ZN10My_PatchesD2Ev, .-_ZN10My_PatchesD2Ev
	.weak	_ZN10My_PatchesD1Ev
	.hidden	_ZN10My_PatchesD1Ev
_ZN10My_PatchesD1Ev = _ZN10My_PatchesD2Ev
	.section	.text._Z8_GhostV2Pvi,"ax",%progbits
	.align	2
	.global	_Z8_GhostV2Pvi
	.hidden	_Z8_GhostV2Pvi
	.type	_Z8_GhostV2Pvi, %function
_Z8_GhostV2Pvi:
	.fnstart
	@ args = 0, pretend = 0, frame = 0
	@ frame_needed = 0, uses_anonymous_args = 0
	@ link register save eliminated.
	cmp	r0, #0
	beq	.L60
	ldr	r2, .L65
	ldr	r3, .L65+4
.LPIC35:
	add	r2, pc, r2
.LPIC34:
	add	r3, pc, r3
	ldrb	r2, [r2]	@ zero_extendqisi2
	str	r0, [r3]
	cmp	r2, #0
	bne	.L64
.L60:
	ldr	r3, .L65+8
.LPIC33:
	add	r3, pc, r3
	ldr	r3, [r3]
	bx	r3
.L64:
	mov	r0, #0
	bx	lr
.L66:
	.align	2
.L65:
	.word	.LANCHOR8-(.LPIC35+8)
	.word	.LANCHOR7-(.LPIC34+8)
	.word	.LANCHOR6-(.LPIC33+8)
	.fnend
	.size	_Z8_GhostV2Pvi, .-_Z8_GhostV2Pvi
	.section	.text.unlikely._ZNSs4_Rep10_M_disposeERKSaIcE.part.3,"ax",%progbits
	.align	2
	.type	_ZNSs4_Rep10_M_disposeERKSaIcE.part.3, %function
_ZNSs4_Rep10_M_disposeERKSaIcE.part.3:
	.fnstart
	@ args = 0, pretend = 0, frame = 0
	@ frame_needed = 0, uses_anonymous_args = 0
	add	r3, r0, #8
	str	lr, [sp, #-4]!
	.save {lr}
	dmb	sy
.L69:
	ldrex	r2, [r3]
	sub	ip, r2, #1
	strex	lr, ip, [r3]
	cmp	lr, #0
	bne	.L69
	cmp	r2, #0
	dmb	sy
	ldrgt	pc, [sp], #4
	ldr	lr, [sp], #4
	b	_ZNSs4_Rep10_M_destroyERKSaIcE(PLT)
	.fnend
	.size	_ZNSs4_Rep10_M_disposeERKSaIcE.part.3, .-_ZNSs4_Rep10_M_disposeERKSaIcE.part.3
	.section	.text._ZN7_JNIEnv9NewObjectEP7_jclassP10_jmethodIDz,"axG",%progbits,_ZN7_JNIEnv9NewObjectEP7_jclassP10_jmethodIDz,comdat
	.align	2
	.weak	_ZN7_JNIEnv9NewObjectEP7_jclassP10_jmethodIDz
	.hidden	_ZN7_JNIEnv9NewObjectEP7_jclassP10_jmethodIDz
	.type	_ZN7_JNIEnv9NewObjectEP7_jclassP10_jmethodIDz, %function
_ZN7_JNIEnv9NewObjectEP7_jclassP10_jmethodIDz:
	.fnstart
	@ args = 4, pretend = 8, frame = 8
	@ frame_needed = 0, uses_anonymous_args = 1
	stmfd	sp!, {r2, r3}
	.save {r2, r3}
	stmfd	sp!, {r4, lr}
	.save {r4, lr}
	.pad #8
	sub	sp, sp, #8
	ldr	r4, .L75
	add	ip, sp, #20
	ldr	lr, [r0]
	mov	r3, ip
	str	ip, [sp]
.LPIC37:
	ldr	r4, [pc, r4]		@ tls_load_dot_plus_eight
	ldr	ip, [lr, #116]
	ldr	r2, [sp, #16]
	ldr	lr, [r4]
	str	lr, [sp, #4]
	blx	ip
	ldr	r2, [sp, #4]
	ldr	r3, [r4]
	cmp	r2, r3
	bne	.L74
	add	sp, sp, #8
	@ sp needed
	ldmfd	sp!, {r4, lr}
	add	sp, sp, #8
	bx	lr
.L74:
	bl	__stack_chk_fail(PLT)
.L76:
	.align	2
.L75:
	.word	__stack_chk_guard(GOT_PREL)+(.-(.LPIC37+8))
	.fnend
	.size	_ZN7_JNIEnv9NewObjectEP7_jclassP10_jmethodIDz, .-_ZN7_JNIEnv9NewObjectEP7_jclassP10_jmethodIDz
	.section	.text._ZN7_JNIEnv13CallIntMethodEP8_jobjectP10_jmethodIDz,"axG",%progbits,_ZN7_JNIEnv13CallIntMethodEP8_jobjectP10_jmethodIDz,comdat
	.align	2
	.weak	_ZN7_JNIEnv13CallIntMethodEP8_jobjectP10_jmethodIDz
	.hidden	_ZN7_JNIEnv13CallIntMethodEP8_jobjectP10_jmethodIDz
	.type	_ZN7_JNIEnv13CallIntMethodEP8_jobjectP10_jmethodIDz, %function
_ZN7_JNIEnv13CallIntMethodEP8_jobjectP10_jmethodIDz:
	.fnstart
	@ args = 4, pretend = 8, frame = 8
	@ frame_needed = 0, uses_anonymous_args = 1
	stmfd	sp!, {r2, r3}
	.save {r2, r3}
	stmfd	sp!, {r4, lr}
	.save {r4, lr}
	.pad #8
	sub	sp, sp, #8
	ldr	r4, .L81
	add	ip, sp, #20
	ldr	lr, [r0]
	mov	r3, ip
	str	ip, [sp]
.LPIC39:
	ldr	r4, [pc, r4]		@ tls_load_dot_plus_eight
	ldr	ip, [lr, #200]
	ldr	r2, [sp, #16]
	ldr	lr, [r4]
	str	lr, [sp, #4]
	blx	ip
	ldr	r2, [sp, #4]
	ldr	r3, [r4]
	cmp	r2, r3
	bne	.L80
	add	sp, sp, #8
	@ sp needed
	ldmfd	sp!, {r4, lr}
	add	sp, sp, #8
	bx	lr
.L80:
	bl	__stack_chk_fail(PLT)
.L82:
	.align	2
.L81:
	.word	__stack_chk_guard(GOT_PREL)+(.-(.LPIC39+8))
	.fnend
	.size	_ZN7_JNIEnv13CallIntMethodEP8_jobjectP10_jmethodIDz, .-_ZN7_JNIEnv13CallIntMethodEP8_jobjectP10_jmethodIDz
	.section	.text._ZN7_JNIEnv14CallVoidMethodEP8_jobjectP10_jmethodIDz,"axG",%progbits,_ZN7_JNIEnv14CallVoidMethodEP8_jobjectP10_jmethodIDz,comdat
	.align	2
	.weak	_ZN7_JNIEnv14CallVoidMethodEP8_jobjectP10_jmethodIDz
	.hidden	_ZN7_JNIEnv14CallVoidMethodEP8_jobjectP10_jmethodIDz
	.type	_ZN7_JNIEnv14CallVoidMethodEP8_jobjectP10_jmethodIDz, %function
_ZN7_JNIEnv14CallVoidMethodEP8_jobjectP10_jmethodIDz:
	.fnstart
	@ args = 4, pretend = 8, frame = 8
	@ frame_needed = 0, uses_anonymous_args = 1
	stmfd	sp!, {r2, r3}
	.save {r2, r3}
	stmfd	sp!, {r4, lr}
	.save {r4, lr}
	.pad #8
	sub	sp, sp, #8
	ldr	r4, .L87
	add	ip, sp, #20
	ldr	lr, [r0]
	mov	r3, ip
	str	ip, [sp]
.LPIC41:
	ldr	r4, [pc, r4]		@ tls_load_dot_plus_eight
	ldr	ip, [lr, #248]
	ldr	r2, [sp, #16]
	ldr	lr, [r4]
	str	lr, [sp, #4]
	blx	ip
	ldr	r2, [sp, #4]
	ldr	r3, [r4]
	cmp	r2, r3
	bne	.L86
	add	sp, sp, #8
	@ sp needed
	ldmfd	sp!, {r4, lr}
	add	sp, sp, #8
	bx	lr
.L86:
	bl	__stack_chk_fail(PLT)
.L88:
	.align	2
.L87:
	.word	__stack_chk_guard(GOT_PREL)+(.-(.LPIC41+8))
	.fnend
	.size	_ZN7_JNIEnv14CallVoidMethodEP8_jobjectP10_jmethodIDz, .-_ZN7_JNIEnv14CallVoidMethodEP8_jobjectP10_jmethodIDz
	.section	.text._ZN3ESP8DrawLineE5Colorf7Vector3S1_.isra.12,"ax",%progbits
	.align	2
	.type	_ZN3ESP8DrawLineE5Colorf7Vector3S1_.isra.12, %function
_ZN3ESP8DrawLineE5Colorf7Vector3S1_.isra.12:
	.fnstart
	@ args = 0, pretend = 0, frame = 16
	@ frame_needed = 0, uses_anonymous_args = 0
	stmfd	sp!, {r4, lr}
	.save {r4, lr}
	fstmfdd	sp!, {d8, d9, d10}
	.vsave {d8, d9, d10}
	ldr	r3, [r0]
	cmp	r3, #0
	.pad #72
	sub	sp, sp, #72
	fsts	s0, [sp, #56]
	fsts	s1, [sp, #60]
	fsts	s2, [sp, #64]
	fsts	s3, [sp, #68]
	beq	.L89
	ldr	r1, [r0, #4]
	cmp	r1, #0
	beq	.L89
	ldr	r2, [r0, #8]
	cmp	r2, #0
	beq	.L89
	ldr	r2, [r3]
	mov	r4, r0
	mov	r0, r3
	fcpys	s19, s7
	ldr	r3, [r2, #124]
	fcpys	s16, s5
	fcpys	s18, s8
	fcpys	s20, s6
	fcpys	s17, s4
	blx	r3
	ldr	r2, .L99
	ldr	r3, .L99+4
.LPIC42:
	add	r2, pc, r2
.LPIC43:
	add	r3, pc, r3
	mov	r1, r0
	ldr	r0, [r4]
	ldr	ip, [r0]
	ldr	ip, [ip, #132]
	blx	ip
	flds	s15, [sp, #64]
	flds	s14, [sp, #60]
	ftosizs	s15, s15
	flds	s12, [sp, #68]
	flds	s13, [sp, #56]
	ftosizs	s14, s14
	fmrs	ip, s15	@ int
	fcvtds	d2, s17
	ftosizs	s12, s12
	mov	r2, r0
	ldmia	r4, {r0, r1, r3}
	ftosizs	s13, s13
	fsts	s14, [sp, #8]	@ int
	str	ip, [sp, #12]
	fstd	d2, [sp, #16]
	fcvtds	d7, s16
	fsts	s12, [sp]	@ int
	fsts	s13, [sp, #4]	@ int
	fcvtds	d3, s20
	fstd	d7, [sp, #24]
	fcvtds	d4, s18
	fstd	d3, [sp, #32]
	fcvtds	d7, s19
	fstd	d4, [sp, #48]
	fstd	d7, [sp, #40]
	bl	_ZN7_JNIEnv14CallVoidMethodEP8_jobjectP10_jmethodIDz(PLT)
.L89:
	add	sp, sp, #72
	@ sp needed
	fldmfdd	sp!, {d8-d10}
	ldmfd	sp!, {r4, pc}
.L100:
	.align	2
.L99:
	.word	.LC75-(.LPIC42+8)
	.word	.LC76-(.LPIC43+8)
	.fnend
	.size	_ZN3ESP8DrawLineE5Colorf7Vector3S1_.isra.12, .-_ZN3ESP8DrawLineE5Colorf7Vector3S1_.isra.12
	.section	.text._ZN3ESP8DrawTextE5ColorPKc7Vector3f.isra.13,"ax",%progbits
	.align	2
	.type	_ZN3ESP8DrawTextE5ColorPKc7Vector3f.isra.13, %function
_ZN3ESP8DrawTextE5ColorPKc7Vector3f.isra.13:
	.fnstart
	@ args = 0, pretend = 0, frame = 16
	@ frame_needed = 0, uses_anonymous_args = 0
	stmfd	sp!, {r4, r5, r6, r7, r8, r9, r10, fp, lr}
	.save {r4, r5, r6, r7, r8, r9, r10, fp, lr}
	fstmfdd	sp!, {d8, d9}
	.vsave {d8, d9}
	ldr	r3, [r0]
	cmp	r3, #0
	.pad #68
	sub	sp, sp, #68
	fsts	s0, [sp, #48]
	fsts	s1, [sp, #52]
	fsts	s2, [sp, #56]
	fsts	s3, [sp, #60]
	beq	.L101
	ldr	r2, [r0, #4]
	cmp	r2, #0
	beq	.L101
	ldr	ip, [r0, #8]
	cmp	ip, #0
	beq	.L101
	ldr	ip, [r3]
	mov	r4, r0
	mov	r5, r1
	mov	r0, r3
	mov	r1, r2
	fcpys	s16, s5
	ldr	r3, [ip, #124]
	fcpys	s18, s6
	fcpys	s17, s4
	blx	r3
	ldr	r2, .L111
	ldr	r3, .L111+4
.LPIC44:
	add	r2, pc, r2
.LPIC45:
	add	r3, pc, r3
	mov	r1, r0
	ldr	r0, [r4]
	ldr	ip, [r0]
	ldr	ip, [ip, #132]
	blx	ip
	flds	s15, [sp, #60]
	ldr	r8, [r4]
	mov	r1, r5
	ldr	fp, [r4, #4]
	flds	s13, [sp, #48]
	ldr	r3, [r8]
	ldr	r9, [r4, #8]
	ftosizs	s15, s15
	flds	s14, [sp, #52]
	ldr	r3, [r3, #668]
	fmrs	r7, s15	@ int
	flds	s15, [sp, #56]
	ftosizs	s14, s14
	ftosizs	s15, s15
	fmrs	r5, s14	@ int
	ftosizs	s13, s13
	mov	r10, r0
	mov	r0, r8
	fmrs	r4, s15	@ int
	fmrs	r6, s13	@ int
	blx	r3
	fcvtds	d2, s17
	str	r7, [sp]
	mov	r1, fp
	mov	r2, r10
	mov	r3, r9
	str	r5, [sp, #8]
	fcvtds	d7, s16
	fstd	d2, [sp, #24]
	fcvtds	d3, s18
	str	r4, [sp, #12]
	fstd	d7, [sp, #32]
	str	r6, [sp, #4]
	fstd	d3, [sp, #40]
	str	r0, [sp, #16]
	mov	r0, r8
	bl	_ZN7_JNIEnv14CallVoidMethodEP8_jobjectP10_jmethodIDz(PLT)
.L101:
	add	sp, sp, #68
	@ sp needed
	fldmfdd	sp!, {d8-d9}
	ldmfd	sp!, {r4, r5, r6, r7, r8, r9, r10, fp, pc}
.L112:
	.align	2
.L111:
	.word	.LC77-(.LPIC44+8)
	.word	.LC78-(.LPIC45+8)
	.fnend
	.size	_ZN3ESP8DrawTextE5ColorPKc7Vector3f.isra.13, .-_ZN3ESP8DrawTextE5ColorPKc7Vector3f.isra.13
	.section	.text._ZN3ESP10DrawCircleE5Colorf7Vector3f.isra.14,"ax",%progbits
	.align	2
	.type	_ZN3ESP10DrawCircleE5Colorf7Vector3f.isra.14, %function
_ZN3ESP10DrawCircleE5Colorf7Vector3f.isra.14:
	.fnstart
	@ args = 0, pretend = 0, frame = 16
	@ frame_needed = 0, uses_anonymous_args = 0
	stmfd	sp!, {r4, lr}
	.save {r4, lr}
	fstmfdd	sp!, {d8, d9}
	.vsave {d8, d9}
	ldr	r3, [r0]
	cmp	r3, #0
	.pad #64
	sub	sp, sp, #64
	fsts	s0, [sp, #48]
	fsts	s1, [sp, #52]
	fsts	s2, [sp, #56]
	fsts	s3, [sp, #60]
	beq	.L113
	ldr	r1, [r0, #4]
	cmp	r1, #0
	beq	.L113
	ldr	r2, [r0, #8]
	cmp	r2, #0
	beq	.L113
	ldr	r2, [r3]
	mov	r4, r0
	mov	r0, r3
	fcpys	s18, s7
	ldr	r3, [r2, #124]
	fcpys	s16, s5
	fcpys	s19, s6
	fcpys	s17, s4
	blx	r3
	ldr	r2, .L123
	ldr	r3, .L123+4
.LPIC46:
	add	r2, pc, r2
.LPIC47:
	add	r3, pc, r3
	mov	r1, r0
	ldr	r0, [r4]
	ldr	ip, [r0]
	ldr	ip, [ip, #132]
	blx	ip
	flds	s15, [sp, #56]
	flds	s14, [sp, #52]
	ftosizs	s15, s15
	flds	s12, [sp, #60]
	flds	s13, [sp, #48]
	ftosizs	s14, s14
	fmrs	ip, s15	@ int
	fcvtds	d2, s17
	ftosizs	s12, s12
	mov	r2, r0
	ldmia	r4, {r0, r1, r3}
	ftosizs	s13, s13
	fsts	s14, [sp, #8]	@ int
	str	ip, [sp, #12]
	fstd	d2, [sp, #16]
	fcvtds	d7, s16
	fsts	s12, [sp]	@ int
	fsts	s13, [sp, #4]	@ int
	fcvtds	d3, s19
	fstd	d7, [sp, #24]
	fcvtds	d7, s18
	fstd	d3, [sp, #32]
	fstd	d7, [sp, #40]
	bl	_ZN7_JNIEnv14CallVoidMethodEP8_jobjectP10_jmethodIDz(PLT)
.L113:
	add	sp, sp, #64
	@ sp needed
	fldmfdd	sp!, {d8-d9}
	ldmfd	sp!, {r4, pc}
.L124:
	.align	2
.L123:
	.word	.LC79-(.LPIC46+8)
	.word	.LC80-(.LPIC47+8)
	.fnend
	.size	_ZN3ESP10DrawCircleE5Colorf7Vector3f.isra.14, .-_ZN3ESP10DrawCircleE5Colorf7Vector3f.isra.14
	.section	.text._Z14NormalizeAnglef,"ax",%progbits
	.align	2
	.global	_Z14NormalizeAnglef
	.hidden	_Z14NormalizeAnglef
	.type	_Z14NormalizeAnglef, %function
_Z14NormalizeAnglef:
	.fnstart
	@ args = 0, pretend = 0, frame = 0
	@ frame_needed = 0, uses_anonymous_args = 0
	@ link register save eliminated.
	flds	s14, .L136
	fmsr	s15, r0
	fcmpes	s15, s14
	fmstat
	ble	.L126
.L128:
	fsubs	s15, s15, s14
	fcmpes	s15, s14
	fmstat
	bgt	.L128
.L126:
	fcmpezs	s15
	fmstat
	bpl	.L129
	flds	s14, .L136
.L131:
	fadds	s15, s15, s14
	fcmpezs	s15
	fmstat
	bmi	.L131
.L129:
	fmrs	r0, s15
	bx	lr
.L137:
	.align	2
.L136:
	.word	1135869952
	.fnend
	.size	_Z14NormalizeAnglef, .-_Z14NormalizeAnglef
	.section	.text._Z15NormalizeAngles7Vector3,"ax",%progbits
	.align	2
	.global	_Z15NormalizeAngles7Vector3
	.hidden	_Z15NormalizeAngles7Vector3
	.type	_Z15NormalizeAngles7Vector3, %function
_Z15NormalizeAngles7Vector3:
	.fnstart
	@ args = 0, pretend = 0, frame = 16
	@ frame_needed = 0, uses_anonymous_args = 0
	@ link register save eliminated.
	.pad #16
	sub	sp, sp, #16
	mov	ip, r0
	add	r0, sp, #16
	flds	s12, .L170
	stmdb	r0, {r1, r2, r3}
	flds	s13, [sp, #4]
	flds	s14, [sp, #8]
	fcmpes	s13, s12
	flds	s15, [sp, #12]
	fmstat
	ble	.L139
.L141:
	fsubs	s13, s13, s12
	fcmpes	s13, s12
	fmstat
	bgt	.L141
.L139:
	fcmpezs	s13
	fmstat
	bpl	.L142
	flds	s12, .L170
.L144:
	fadds	s13, s13, s12
	fcmpezs	s13
	fmstat
	bmi	.L144
.L142:
	flds	s12, .L170
	fcmpes	s14, s12
	fmstat
	ble	.L145
.L147:
	fsubs	s14, s14, s12
	fcmpes	s14, s12
	fmstat
	bgt	.L147
.L145:
	fcmpezs	s14
	fmstat
	bpl	.L148
	flds	s12, .L170
.L150:
	fadds	s14, s14, s12
	fcmpezs	s14
	fmstat
	bmi	.L150
.L148:
	flds	s12, .L170
	fcmpes	s15, s12
	fmstat
	ble	.L151
.L153:
	fsubs	s15, s15, s12
	fcmpes	s15, s12
	fmstat
	bgt	.L153
.L151:
	fcmpezs	s15
	fmstat
	bpl	.L154
	flds	s12, .L170
.L156:
	fadds	s15, s15, s12
	fcmpezs	s15
	fmstat
	bmi	.L156
.L154:
	mov	r0, ip
	fsts	s13, [ip]
	fsts	s14, [ip, #4]
	fsts	s15, [ip, #8]
	add	sp, sp, #16
	@ sp needed
	bx	lr
.L171:
	.align	2
.L170:
	.word	1135869952
	.fnend
	.size	_Z15NormalizeAngles7Vector3, .-_Z15NormalizeAngles7Vector3
	.section	.text._Z10ToEulerRad10Quaternion,"ax",%progbits
	.align	2
	.global	_Z10ToEulerRad10Quaternion
	.hidden	_Z10ToEulerRad10Quaternion
	.type	_Z10ToEulerRad10Quaternion, %function
_Z10ToEulerRad10Quaternion:
	.fnstart
	@ args = 20, pretend = 16, frame = 0
	@ frame_needed = 0, uses_anonymous_args = 0
	.pad #16
	sub	sp, sp, #16
	fldd	d5, .L234
	stmfd	sp!, {r4, lr}
	.save {r4, lr}
	mov	r4, r0
	fstmfdd	sp!, {d8, d9, d10, d11, d12, d13, d14}
	.vsave {d8, d9, d10, d11, d12, d13, d14}
	flds	s22, [sp, #80]
	add	ip, sp, #68
	stmia	ip, {r1, r2, r3}
	flds	s20, [sp, #68]
	flds	s18, [sp, #72]
	fmuls	s28, s20, s20
	flds	s24, [sp, #76]
	fcpys	s13, s28
	fmacs	s13, s18, s18
	fmuls	s29, s24, s24
	fadds	s14, s13, s29
	fmacs	s14, s22, s22
	fmuls	s17, s24, s18
	fmscs	s17, s20, s22
	fcvtds	d7, s14
	fmuld	d5, d7, d5
	fcvtds	d4, s17
	fcmped	d4, d5
	fmstat
	bgt	.L233
	fldd	d5, .L234+8
	fmuld	d7, d7, d5
	fcmped	d4, d7
	fmstat
	bpl	.L231
	fmrs	r0, s18
	fmrs	r1, s20
	bl	atan2f(PLT)
	fconsts	s15, #128
	flds	s13, .L234+16
	flds	s14, .L234+20
	fmsr	s12, r0
	fmuls	s15, s12, s15
	fmuls	s15, s15, s13
	fcmpes	s15, s14
	fmstat
	ble	.L184
.L186:
	fsubs	s15, s15, s14
	fcmpes	s15, s14
	fmstat
	bgt	.L186
.L184:
	fcmpezs	s15
	fmstat
	bpl	.L187
	flds	s14, .L234+20
.L189:
	fadds	s15, s15, s14
	fcmpezs	s15
	fmstat
	bmi	.L189
.L187:
	fsts	s15, [r4, #4]
	mov	r2, #0
	movt	r2, 17287
	mov	r3, #0
	str	r2, [r4]	@ float
	str	r3, [r4, #8]	@ float
.L172:
	fldmfdd	sp!, {d8-d14}
	mov	r0, r4
	ldmfd	sp!, {r4, lr}
	add	sp, sp, #16
	bx	lr
.L231:
	fcvtds	d12, s24
	faddd	d5, d12, d12
	fcvtds	d10, s20
	fmuld	d5, d5, d10
	fcvtds	d11, s22
	faddd	d11, d11, d11
	fcvtds	d9, s18
	fcvtds	d7, s13
	fcpyd	d6, d5
	fmacd	d6, d11, d9
	fconstd	d13, #112
	faddd	d7, d7, d7
	fsubd	d7, d13, d7
	fcvtsd	s13, d6
	fcvtsd	s15, d7
	fmrs	r0, s13
	fmrs	r1, s15
	bl	atan2f(PLT)
	fadds	s15, s17, s17
	fmsr	s16, r0
	fmrs	r0, s15
	bl	asinf(PLT)
	faddd	d10, d10, d10
	fmuld	d9, d9, d10
	fadds	s28, s28, s29
	fmsr	s17, r0
	fmacd	d9, d11, d12
	fcvtds	d14, s28
	faddd	d14, d14, d14
	fsubd	d14, d13, d14
	fcvtsd	s15, d9
	fmrs	r0, s15
	fcvtsd	s15, d14
	fmrs	r1, s15
	bl	atan2f(PLT)
	flds	s15, .L234+16
	flds	s12, .L234+20
	fmuls	s13, s17, s15
	fcmpes	s13, s12
	fmuls	s14, s16, s15
	fmstat
	fmsr	s11, r0
	fmuls	s15, s11, s15
	ble	.L190
.L192:
	fsubs	s13, s13, s12
	fcmpes	s13, s12
	fmstat
	bgt	.L192
.L190:
	fcmpezs	s13
	fmstat
	bpl	.L193
	flds	s12, .L234+20
.L195:
	fadds	s13, s13, s12
	fcmpezs	s13
	fmstat
	bmi	.L195
.L193:
	flds	s12, .L234+20
	fcmpes	s14, s12
	fmstat
	ble	.L196
.L198:
	fsubs	s14, s14, s12
	fcmpes	s14, s12
	fmstat
	bgt	.L198
.L196:
	fcmpezs	s14
	fmstat
	bpl	.L199
	flds	s12, .L234+20
.L201:
	fadds	s14, s14, s12
	fcmpezs	s14
	fmstat
	bmi	.L201
.L199:
	flds	s12, .L234+20
	fcmpes	s15, s12
	fmstat
	ble	.L202
.L204:
	fsubs	s15, s15, s12
	fcmpes	s15, s12
	fmstat
	bgt	.L204
.L202:
	fcmpezs	s15
	fmstat
	bpl	.L205
	flds	s12, .L234+20
.L207:
	fadds	s15, s15, s12
	fcmpezs	s15
	fmstat
	bmi	.L207
.L205:
	fsts	s13, [r4]
	fsts	s14, [r4, #4]
	fsts	s15, [r4, #8]
	b	.L172
.L233:
	fmrs	r0, s18
	fmrs	r1, s20
	bl	atan2f(PLT)
	flds	s13, .L234+16
	flds	s14, .L234+20
	fmsr	s15, r0
	fadds	s15, s15, s15
	fmuls	s15, s15, s13
	fcmpes	s15, s14
	fmstat
	ble	.L175
.L177:
	fsubs	s15, s15, s14
	fcmpes	s15, s14
	fmstat
	bgt	.L177
.L175:
	fcmpezs	s15
	fmstat
	bpl	.L178
	flds	s14, .L234+20
.L180:
	fadds	s15, s15, s14
	fcmpezs	s15
	fmstat
	bmi	.L180
.L178:
	mov	r2, #0
	mov	r3, #0
	movt	r2, 17076
	fsts	s15, [r4, #4]
	str	r2, [r4]	@ float
	str	r3, [r4, #8]	@ float
	b	.L172
.L235:
	.align	3
.L234:
	.word	-652835029
	.word	1071642574
	.word	-652835029
	.word	-1075841074
	.word	1113927393
	.word	1135869952
	.fnend
	.size	_Z10ToEulerRad10Quaternion, .-_Z10ToEulerRad10Quaternion
	.section	.text._Z21GetRotationToLocation7Vector3fS_,"ax",%progbits
	.align	2
	.global	_Z21GetRotationToLocation7Vector3fS_
	.hidden	_Z21GetRotationToLocation7Vector3fS_
	.type	_Z21GetRotationToLocation7Vector3fS_, %function
_Z21GetRotationToLocation7Vector3fS_:
	.fnstart
	@ args = 16, pretend = 0, frame = 16
	@ frame_needed = 0, uses_anonymous_args = 0
	stmfd	sp!, {r4, lr}
	.save {r4, lr}
	mov	r4, r0
	fstmfdd	sp!, {d8, d9, d10, d11, d12}
	.vsave {d8, d9, d10, d11, d12}
	flds	s16, .L280+16
	.pad #16
	sub	sp, sp, #16
	add	ip, sp, #16
	flds	s15, [sp, #64]
	stmdb	ip, {r1, r2, r3}
	flds	s18, [sp, #8]
	flds	s14, [sp, #72]
	fadds	s18, s15, s18
	flds	s17, [sp, #4]
	flds	s12, [sp, #68]
	flds	s15, [sp, #12]
	fsubs	s18, s18, s14
	flds	s13, [sp, #76]
	fadds	s17, s17, s16
	fmuls	s14, s18, s18
	fsubs	s17, s17, s12
	fmacs	s14, s17, s17
	fadds	s16, s15, s16
	fsubs	s16, s16, s13
	fmacs	s14, s16, s16
	fsqrts	s15, s14
	fcmps	s15, s15
	fmstat
	bne	.L270
.L237:
	fcmpzs	s15
	flds	s14, .L280+16
	fmstat
	beq	.L238
	fdivs	s17, s17, s15
	fldd	d5, .L280
	fdivs	s18, s18, s15
	fdivs	s16, s16, s15
	fmuls	s15, s17, s17
	fmacs	s15, s18, s18
	fmacs	s15, s16, s16
	fcvtds	d6, s15
	fcmped	d6, d5
	fmstat
	bmi	.L238
	fmuls	s22, s17, s14
	fmuls	s21, s16, s14
	fadds	s12, s18, s22
	fadds	s12, s12, s21
	fabss	s12, s12
	fconstd	d4, #112
	fcvtds	d6, s12
	fsubd	d6, d4, d6
	fcmped	d6, d5
	fmstat
	bmi	.L271
	fmuls	s20, s18, s14
	fsubs	s24, s22, s21
	fmuls	s14, s24, s24
	fsubs	s19, s16, s20
	fmacs	s14, s19, s19
	fsubs	s23, s20, s17
	fmacs	s14, s23, s23
	fsqrts	s15, s14
	fcmps	s15, s15
	fmstat
	bne	.L272
.L245:
	fcmpzs	s15
	fmstat
	beq	.L259
	fdivs	s12, s19, s15
	fdivs	s24, s24, s15
	fdivs	s23, s23, s15
	fmuls	s21, s16, s24
	fmuls	s11, s18, s23
	fmuls	s14, s16, s12
	fmuls	s22, s17, s23
	fmuls	s13, s17, s24
	fmuls	s20, s18, s12
.L246:
	fsubs	s19, s14, s22
	fadds	s15, s12, s19
	fadds	s15, s16, s15
	fcmpezs	s15
	fsubs	s21, s11, s21
	fmstat
	fsubs	s20, s13, s20
	ble	.L265
	fconstd	d6, #112
	fcvtds	d7, s15
	faddd	d6, d7, d6
	fsqrtd	d7, d6
	fcmpd	d7, d7
	fmstat
	bne	.L273
.L249:
	fconstd	d6, #96
	fmuld	d7, d7, d6
	fcvtsd	s11, d7
	fconstd	d6, #16
	fcvtds	d7, s11
	fmuld	d6, d7, d6
	fconstd	d7, #112
	fdivd	d6, d7, d6
	fsubs	s20, s20, s18
	fsubs	s17, s17, s23
	fsubs	s14, s24, s21
	fcvtsd	s12, d6
	fmuls	s15, s12, s20
	fmuls	s10, s12, s17
	fmuls	s14, s12, s14
.L250:
	mov	r0, r4
	fsts	s15, [r4]
	fsts	s10, [r4, #4]
	fsts	s14, [r4, #8]
	fsts	s11, [r4, #12]
	add	sp, sp, #16
	@ sp needed
	fldmfdd	sp!, {d8-d12}
	ldmfd	sp!, {r4, pc}
.L238:
	mov	r3, #0
	mov	r2, #1065353216
	str	r3, [r4]	@ float
	str	r3, [r4, #4]	@ float
	str	r2, [r4, #12]	@ float
	str	r3, [r4, #8]	@ float
.L236:
	mov	r0, r4
	add	sp, sp, #16
	@ sp needed
	fldmfdd	sp!, {d8-d12}
	ldmfd	sp!, {r4, pc}
.L271:
	fsqrts	s13, s15
	fmuls	s19, s18, s14
	fadds	s14, s22, s19
	fcmps	s13, s13
	fadds	s16, s16, s14
	fmstat
	bne	.L274
.L240:
	fldd	d5, .L280+8
	fdivs	s15, s16, s13
	fconsts	s14, #112
	fadds	s14, s15, s14
	fabss	s14, s14
	fcvtds	d7, s14
	fcmped	d7, d5
	fmstat
	bpl	.L264
	mov	r2, #0
	mov	r3, #0
	movt	r2, 49024
	mov	r0, r4
	str	r3, [r4]	@ float
	str	r3, [r4, #8]	@ float
	str	r2, [r4, #4]	@ float
	str	r3, [r4, #12]	@ float
	add	sp, sp, #16
	@ sp needed
	fldmfdd	sp!, {d8-d12}
	ldmfd	sp!, {r4, pc}
.L265:
	fcmpes	s12, s19
	fmstat
	fcmpes	s16, s12
	movge	r3, #1
	movlt	r3, #0
	fmstat
	andls	r3, r3, #1
	movhi	r3, #0
	cmp	r3, #0
	bne	.L275
	fcmpes	s16, s19
	fconstd	d5, #112
	fmstat
	fcvtds	d6, s12
	bpl	.L266
	fsubd	d5, d5, d6
	fcvtds	d6, s19
	faddd	d6, d5, d6
	fcvtds	d7, s16
	fsubd	d6, d6, d7
	fsqrtd	d7, d6
	fcmpd	d7, d7
	fmstat
	bne	.L276
.L255:
	fconstd	d6, #96
	fmuld	d7, d7, d6
	fcvtsd	s10, d7
	fconstd	d6, #16
	fcvtds	d7, s10
	fmuld	d7, d7, d6
	fconstd	d6, #112
	fdivd	d6, d6, d7
	fsubs	s17, s17, s23
	fadds	s14, s18, s20
	fadds	s21, s24, s21
	fcvtsd	s12, d6
	fmuls	s14, s12, s14
	fmuls	s11, s12, s17
	fmuls	s15, s12, s21
	b	.L250
.L264:
	fsubs	s17, s17, s21
	fmuls	s15, s17, s17
	fsubs	s18, s21, s18
	fmacs	s15, s18, s18
	fsubs	s19, s19, s22
	fmacs	s15, s19, s19
	fadds	s16, s16, s13
	fmacs	s15, s16, s16
	fsqrts	s13, s15
	fcmps	s13, s13
	fmstat
	bne	.L277
.L244:
	fdivs	s18, s18, s13
	fdivs	s17, s17, s13
	fsts	s18, [r4]
	fdivs	s19, s19, s13
	fsts	s17, [r4, #4]
	fdivs	s16, s16, s13
	fsts	s19, [r4, #8]
	fsts	s16, [r4, #12]
	b	.L236
.L259:
	flds	s23, .L280+16
	fcpys	s13, s22
	fcpys	s24, s23
	fcpys	s12, s23
	fcpys	s14, s21
	fcpys	s11, s20
	b	.L246
.L266:
	fsubd	d6, d5, d6
	fcvtds	d7, s19
	fsubd	d7, d6, d7
	fcvtds	d6, s16
	faddd	d6, d7, d6
	fsqrtd	d7, d6
	fcmpd	d7, d7
	fmstat
	bne	.L278
.L256:
	fconstd	d6, #96
	fmuld	d7, d7, d6
	fcvtsd	s14, d7
	fconstd	d5, #16
	fcvtds	d6, s14
	fmuld	d5, d6, d5
	fconstd	d6, #112
	fdivd	d6, d6, d5
	fadds	s20, s18, s20
	fadds	s17, s17, s23
	fsubs	s21, s24, s21
	fcvtsd	s12, d6
	fmuls	s10, s12, s20
	fmuls	s15, s12, s17
	fmuls	s11, s12, s21
	b	.L250
.L281:
	.align	3
.L280:
	.word	-640172613
	.word	1037794527
	.word	-1998362383
	.word	1055193269
	.word	0
.L275:
	fconstd	d7, #112
	fcvtds	d5, s12
	faddd	d5, d5, d7
	fcvtds	d6, s19
	fsubd	d6, d5, d6
	fcvtds	d7, s16
	fsubd	d6, d6, d7
	fsqrtd	d7, d6
	fcmpd	d7, d7
	fmstat
	bne	.L279
.L252:
	fconstd	d6, #96
	fmuld	d7, d7, d6
	fcvtsd	s15, d7
	fconstd	d5, #16
	fcvtds	d6, s15
	fmuld	d5, d6, d5
	fconstd	d6, #112
	fdivd	d6, d6, d5
	fadds	s14, s17, s23
	fsubs	s11, s20, s18
	fadds	s21, s24, s21
	fcvtsd	s12, d6
	fmuls	s11, s12, s11
	fmuls	s14, s12, s14
	fmuls	s10, s12, s21
	b	.L250
.L270:
	fmrs	r0, s14
	bl	sqrtf(PLT)
	fmsr	s15, r0
	b	.L237
.L273:
	fmrrd	r0, r1, d6
	bl	sqrt(PLT)
	fmdrr	d7, r0, r1
	b	.L249
.L272:
	fmrs	r0, s14
	bl	sqrtf(PLT)
	fmsr	s15, r0
	b	.L245
.L274:
	fmrs	r0, s15
	bl	sqrtf(PLT)
	fmsr	s13, r0
	b	.L240
.L277:
	fmrs	r0, s15
	bl	sqrtf(PLT)
	fmsr	s13, r0
	b	.L244
.L276:
	fmrrd	r0, r1, d6
	bl	sqrt(PLT)
	fmdrr	d7, r0, r1
	b	.L255
.L278:
	fmrrd	r0, r1, d6
	bl	sqrt(PLT)
	fmdrr	d7, r0, r1
	b	.L256
.L279:
	fmrrd	r0, r1, d6
	bl	sqrt(PLT)
	fmdrr	d7, r0, r1
	b	.L252
	.fnend
	.size	_Z21GetRotationToLocation7Vector3fS_, .-_Z21GetRotationToLocation7Vector3fS_
	.section	.text._Z19GetObscuredIntValuey,"ax",%progbits
	.align	2
	.global	_Z19GetObscuredIntValuey
	.hidden	_Z19GetObscuredIntValuey
	.type	_Z19GetObscuredIntValuey, %function
_Z19GetObscuredIntValuey:
	.fnstart
	@ args = 0, pretend = 0, frame = 0
	@ frame_needed = 0, uses_anonymous_args = 0
	@ link register save eliminated.
	ldmia	r0, {r0, r2}
	eor	r0, r0, r2
	bx	lr
	.fnend
	.size	_Z19GetObscuredIntValuey, .-_Z19GetObscuredIntValuey
	.section	.text._Z20GetObscuredBoolValuey,"ax",%progbits
	.align	2
	.global	_Z20GetObscuredBoolValuey
	.hidden	_Z20GetObscuredBoolValuey
	.type	_Z20GetObscuredBoolValuey, %function
_Z20GetObscuredBoolValuey:
	.fnstart
	@ args = 0, pretend = 0, frame = 0
	@ frame_needed = 0, uses_anonymous_args = 0
	@ link register save eliminated.
	ldr	r2, [r0, #12]
	ldr	r0, [r0, #8]
	eor	r0, r0, r2
	bx	lr
	.fnend
	.size	_Z20GetObscuredBoolValuey, .-_Z20GetObscuredBoolValuey
	.section	.text._Z19SetObscuredIntValueyi,"ax",%progbits
	.align	2
	.global	_Z19SetObscuredIntValueyi
	.hidden	_Z19SetObscuredIntValueyi
	.type	_Z19SetObscuredIntValueyi, %function
_Z19SetObscuredIntValueyi:
	.fnstart
	@ args = 0, pretend = 0, frame = 0
	@ frame_needed = 0, uses_anonymous_args = 0
	@ link register save eliminated.
	ldr	r3, [r0]
	eor	r2, r2, r3
	str	r2, [r0, #4]
	bx	lr
	.fnend
	.size	_Z19SetObscuredIntValueyi, .-_Z19SetObscuredIntValueyi
	.section	.text._Z21GetObscuredFloatValuey,"ax",%progbits
	.align	2
	.global	_Z21GetObscuredFloatValuey
	.hidden	_Z21GetObscuredFloatValuey
	.type	_Z21GetObscuredFloatValuey, %function
_Z21GetObscuredFloatValuey:
	.fnstart
	@ args = 0, pretend = 0, frame = 0
	@ frame_needed = 0, uses_anonymous_args = 0
	@ link register save eliminated.
	ldmia	r0, {r2, r3}
	eor	r0, r2, r3
	bx	lr
	.fnend
	.size	_Z21GetObscuredFloatValuey, .-_Z21GetObscuredFloatValuey
	.section	.text._Z21SetObscuredFloatValueyf,"ax",%progbits
	.align	2
	.global	_Z21SetObscuredFloatValueyf
	.hidden	_Z21SetObscuredFloatValueyf
	.type	_Z21SetObscuredFloatValueyf, %function
_Z21SetObscuredFloatValueyf:
	.fnstart
	@ args = 0, pretend = 0, frame = 0
	@ frame_needed = 0, uses_anonymous_args = 0
	@ link register save eliminated.
	ldr	r3, [r0]
	eor	r2, r2, r3
	str	r2, [r0, #4]	@ float
	bx	lr
	.fnend
	.size	_Z21SetObscuredFloatValueyf, .-_Z21SetObscuredFloatValueyf
	.section	.text._Z11get_libBasePKc,"ax",%progbits
	.align	2
	.global	_Z11get_libBasePKc
	.hidden	_Z11get_libBasePKc
	.type	_Z11get_libBasePKc, %function
_Z11get_libBasePKc:
	.fnstart
	@ args = 0, pretend = 0, frame = 1064
	@ frame_needed = 0, uses_anonymous_args = 0
	stmfd	sp!, {r4, r5, r6, r7, lr}
	.save {r4, r5, r6, r7, lr}
	.pad #1056
	sub	sp, sp, #1056
	ldr	r7, .L300
	.pad #12
	sub	sp, sp, #12
	mov	r6, r0
	add	r4, sp, #4
.LPIC51:
	ldr	r7, [pc, r7]		@ tls_load_dot_plus_eight
	ldr	r3, [r7]
	str	r3, [sp, #1060]
	bl	getpid(PLT)
	ldr	r2, .L300+4
	mov	r1, #32
.LPIC49:
	add	r2, pc, r2
	mov	r3, r0
	mov	r0, r4
	bl	snprintf(PLT)
	ldr	r1, .L300+8
	mov	r0, r4
.LPIC50:
	add	r1, pc, r1
	bl	fopen(PLT)
	subs	r5, r0, #0
	beq	.L296
	add	r4, sp, #36
	b	.L288
.L291:
	mov	r0, r4
	mov	r1, r6
	bl	strstr(PLT)
	cmp	r0, #0
	bne	.L298
.L288:
	mov	r0, r4
	mov	r1, #1024
	mov	r2, r5
	bl	fgets(PLT)
	cmp	r0, #0
	bne	.L291
	mov	r4, r0
.L290:
	mov	r0, r5
	bl	fclose(PLT)
.L289:
	ldr	r2, [sp, #1060]
	mov	r0, r4
	ldr	r3, [r7]
	cmp	r2, r3
	bne	.L299
	add	sp, sp, #1056
	add	sp, sp, #12
	@ sp needed
	ldmfd	sp!, {r4, r5, r6, r7, pc}
.L298:
	mov	r0, r4
	mov	r1, #0
	mov	r2, #16
	bl	strtoul(PLT)
	mov	r4, r0
	b	.L290
.L296:
	mov	r4, r5
	b	.L289
.L299:
	bl	__stack_chk_fail(PLT)
.L301:
	.align	2
.L300:
	.word	__stack_chk_guard(GOT_PREL)+(.-(.LPIC51+8))
	.word	.LC81-(.LPIC49+8)
	.word	.LC82-(.LPIC50+8)
	.fnend
	.size	_Z11get_libBasePKc, .-_Z11get_libBasePKc
	.section	.text._Z13getRealOffsetm,"ax",%progbits
	.align	2
	.global	_Z13getRealOffsetm
	.hidden	_Z13getRealOffsetm
	.type	_Z13getRealOffsetm, %function
_Z13getRealOffsetm:
	.fnstart
	@ args = 0, pretend = 0, frame = 0
	@ frame_needed = 0, uses_anonymous_args = 0
	stmfd	sp!, {r3, r4, r5, lr}
	.save {r3, r4, r5, lr}
	mov	r5, r0
	ldr	r4, .L305
.LPIC52:
	add	r4, pc, r4
	ldr	r0, [r4]
	cmp	r0, #0
	bne	.L303
	ldr	r3, .L305+4
.LPIC53:
	ldr	r0, [pc, r3]		@ tls_load_dot_plus_eight
	bl	_Z11get_libBasePKc(PLT)
	str	r0, [r4]
.L303:
	add	r0, r0, r5
	ldmfd	sp!, {r3, r4, r5, pc}
.L306:
	.align	2
.L305:
	.word	.LANCHOR9-(.LPIC52+8)
	.word	.LANCHOR10-(.LPIC53+8)
	.fnend
	.size	_Z13getRealOffsetm, .-_Z13getRealOffsetm
	.section	.text._ZL14GetPlayerCaidoPv,"ax",%progbits
	.align	2
	.type	_ZL14GetPlayerCaidoPv, %function
_ZL14GetPlayerCaidoPv:
	.fnstart
	@ args = 0, pretend = 0, frame = 0
	@ frame_needed = 0, uses_anonymous_args = 0
	stmfd	sp!, {r4, lr}
	.save {r4, lr}
	mov	r4, r0
	movw	r0, #64232
	movt	r0, 127
	bl	_Z13getRealOffsetm(PLT)
	mov	r3, r0
	mov	r0, r4
	ldmfd	sp!, {r4, lr}
	bx	r3
	.fnend
	.size	_ZL14GetPlayerCaidoPv, .-_ZL14GetPlayerCaidoPv
	.section	.text._ZL15get_isLocalTeamPv,"ax",%progbits
	.align	2
	.type	_ZL15get_isLocalTeamPv, %function
_ZL15get_isLocalTeamPv:
	.fnstart
	@ args = 0, pretend = 0, frame = 0
	@ frame_needed = 0, uses_anonymous_args = 0
	stmfd	sp!, {r4, lr}
	.save {r4, lr}
	mov	r4, r0
	movw	r0, #39256
	movt	r0, 129
	bl	_Z13getRealOffsetm(PLT)
	mov	r3, r0
	mov	r0, r4
	ldmfd	sp!, {r4, lr}
	bx	r3
	.fnend
	.size	_ZL15get_isLocalTeamPv, .-_ZL15get_isLocalTeamPv
	.section	.text._ZL13get_isVisiblePv,"ax",%progbits
	.align	2
	.type	_ZL13get_isVisiblePv, %function
_ZL13get_isVisiblePv:
	.fnstart
	@ args = 0, pretend = 0, frame = 0
	@ frame_needed = 0, uses_anonymous_args = 0
	stmfd	sp!, {r4, lr}
	.save {r4, lr}
	mov	r4, r0
	movw	r0, #11260
	movt	r0, 129
	bl	_Z13getRealOffsetm(PLT)
	mov	r3, r0
	mov	r0, r4
	ldmfd	sp!, {r4, lr}
	bx	r3
	.fnend
	.size	_ZL13get_isVisiblePv, .-_ZL13get_isVisiblePv
	.section	.text._ZL11Camera_mainv,"ax",%progbits
	.align	2
	.type	_ZL11Camera_mainv, %function
_ZL11Camera_mainv:
	.fnstart
	@ args = 0, pretend = 0, frame = 0
	@ frame_needed = 0, uses_anonymous_args = 0
	movw	r0, #34432
	stmfd	sp!, {r4, lr}
	.save {r4, lr}
	movt	r0, 639
	bl	_Z13getRealOffsetm(PLT)
	ldmfd	sp!, {r4, lr}
	mov	r3, r0
	mov	r0, #0
	bx	r3
	.fnend
	.size	_ZL11Camera_mainv, .-_ZL11Camera_mainv
	.section	.text._ZL22Component_GetTransformPv,"ax",%progbits
	.align	2
	.type	_ZL22Component_GetTransformPv, %function
_ZL22Component_GetTransformPv:
	.fnstart
	@ args = 0, pretend = 0, frame = 0
	@ frame_needed = 0, uses_anonymous_args = 0
	stmfd	sp!, {r4, lr}
	.save {r4, lr}
	mov	r4, r0
	movw	r0, #41340
	movt	r0, 639
	bl	_Z13getRealOffsetm(PLT)
	mov	r3, r0
	mov	r0, r4
	ldmfd	sp!, {r4, lr}
	bx	r3
	.fnend
	.size	_ZL22Component_GetTransformPv, .-_ZL22Component_GetTransformPv
	.section	.text._ZL12Curent_Matchv,"ax",%progbits
	.align	2
	.type	_ZL12Curent_Matchv, %function
_ZL12Curent_Matchv:
	.fnstart
	@ args = 0, pretend = 0, frame = 0
	@ frame_needed = 0, uses_anonymous_args = 0
	movw	r0, #52144
	stmfd	sp!, {r4, lr}
	.save {r4, lr}
	movt	r0, 284
	bl	_Z13getRealOffsetm(PLT)
	ldmfd	sp!, {r4, lr}
	mov	r3, r0
	mov	r0, #0
	bx	r3
	.fnend
	.size	_ZL12Curent_Matchv, .-_ZL12Curent_Matchv
	.section	.text._ZL14CurrentUIScenev,"ax",%progbits
	.align	2
	.type	_ZL14CurrentUIScenev, %function
_ZL14CurrentUIScenev:
	.fnstart
	@ args = 0, pretend = 0, frame = 0
	@ frame_needed = 0, uses_anonymous_args = 0
	movw	r0, #18140
	stmfd	sp!, {r4, lr}
	.save {r4, lr}
	movt	r0, 283
	bl	_Z13getRealOffsetm(PLT)
	ldmfd	sp!, {r4, lr}
	mov	r3, r0
	mov	r0, #0
	bx	r3
	.fnend
	.size	_ZL14CurrentUIScenev, .-_ZL14CurrentUIScenev
	.section	.text._ZL12get_NickNamePv,"ax",%progbits
	.align	2
	.type	_ZL12get_NickNamePv, %function
_ZL12get_NickNamePv:
	.fnstart
	@ args = 0, pretend = 0, frame = 0
	@ frame_needed = 0, uses_anonymous_args = 0
	stmfd	sp!, {r4, lr}
	.save {r4, lr}
	mov	r4, r0
	mov	r0, #132
	movt	r0, 129
	bl	_Z13getRealOffsetm(PLT)
	mov	r3, r0
	mov	r0, r4
	ldmfd	sp!, {r4, lr}
	bx	r3
	.fnend
	.size	_ZL12get_NickNamePv, .-_ZL12get_NickNamePv
	.section	.text._ZL6U3DStrPKc,"ax",%progbits
	.align	2
	.type	_ZL6U3DStrPKc, %function
_ZL6U3DStrPKc:
	.fnstart
	@ args = 0, pretend = 0, frame = 0
	@ frame_needed = 0, uses_anonymous_args = 0
	stmfd	sp!, {r4, lr}
	.save {r4, lr}
	mov	r4, r0
	movw	r0, #16952
	movt	r0, 634
	bl	_Z13getRealOffsetm(PLT)
	mov	r1, r4
	ldmfd	sp!, {r4, lr}
	mov	r3, r0
	mov	r0, #0
	bx	r3
	.fnend
	.size	_ZL6U3DStrPKc, .-_ZL6U3DStrPKc
	.section	.text._ZL17ShowAssistantTextPvP11_monoStringS1_,"ax",%progbits
	.align	2
	.type	_ZL17ShowAssistantTextPvP11_monoStringS1_, %function
_ZL17ShowAssistantTextPvP11_monoStringS1_:
	.fnstart
	@ args = 0, pretend = 0, frame = 0
	@ frame_needed = 0, uses_anonymous_args = 0
	stmfd	sp!, {r4, r5, r6, r7, r8, lr}
	.save {r4, r5, r6, r7, r8, lr}
	mov	r7, r0
	movw	r0, #43396
	mov	r6, r1
	movt	r0, 147
	mov	r5, r2
	bl	_Z13getRealOffsetm(PLT)
	mov	r4, r0
	bl	_ZL14CurrentUIScenev(PLT)
	cmp	r0, #0
	ldmeqfd	sp!, {r4, r5, r6, r7, r8, pc}
	mov	r0, r7
	mov	r1, r6
	mov	r2, r5
	mov	r3, r4
	ldmfd	sp!, {r4, r5, r6, r7, r8, lr}
	bx	r3	@ indirect register sibling call
	.fnend
	.size	_ZL17ShowAssistantTextPvP11_monoStringS1_, .-_ZL17ShowAssistantTextPvP11_monoStringS1_
	.section	.text._ZL7set_aimPv10Quaternion,"ax",%progbits
	.align	2
	.type	_ZL7set_aimPv10Quaternion, %function
_ZL7set_aimPv10Quaternion:
	.fnstart
	@ args = 0, pretend = 0, frame = 16
	@ frame_needed = 0, uses_anonymous_args = 0
	stmfd	sp!, {r4, lr}
	.save {r4, lr}
	mov	r4, r0
	.pad #24
	sub	sp, sp, #24
	movw	r0, #3864
	movt	r0, 129
	fsts	s0, [sp, #8]
	fsts	s1, [sp, #12]
	fsts	s2, [sp, #16]
	fsts	s3, [sp, #20]
	bl	_Z13getRealOffsetm(PLT)
	ldr	lr, [sp, #20]
	add	r3, sp, #8
	ldmia	r3, {r1, r2, r3}
	str	lr, [sp]
	mov	ip, r0
	mov	r0, r4
	blx	ip
	add	sp, sp, #24
	@ sp needed
	ldmfd	sp!, {r4, pc}
	.fnend
	.size	_ZL7set_aimPv10Quaternion, .-_ZL7set_aimPv10Quaternion
	.section	.text._ZL18get_MyFollowCameraPv,"ax",%progbits
	.align	2
	.type	_ZL18get_MyFollowCameraPv, %function
_ZL18get_MyFollowCameraPv:
	.fnstart
	@ args = 0, pretend = 0, frame = 0
	@ frame_needed = 0, uses_anonymous_args = 0
	stmfd	sp!, {r4, lr}
	.save {r4, lr}
	mov	r4, r0
	movw	r0, #2460
	movt	r0, 129
	bl	_Z13getRealOffsetm(PLT)
	mov	r3, r0
	mov	r0, r4
	ldmfd	sp!, {r4, lr}
	bx	r3
	.fnend
	.size	_ZL18get_MyFollowCameraPv, .-_ZL18get_MyFollowCameraPv
	.section	.text._Z12GetBaseAnogsPKc,"ax",%progbits
	.align	2
	.global	_Z12GetBaseAnogsPKc
	.hidden	_Z12GetBaseAnogsPKc
	.type	_Z12GetBaseAnogsPKc, %function
_Z12GetBaseAnogsPKc:
	.fnstart
	@ args = 0, pretend = 0, frame = 1064
	@ frame_needed = 0, uses_anonymous_args = 0
	stmfd	sp!, {r4, r5, r6, r7, lr}
	.save {r4, r5, r6, r7, lr}
	.pad #1056
	sub	sp, sp, #1056
	ldr	r7, .L345
	.pad #12
	sub	sp, sp, #12
	mov	r6, r0
	add	r4, sp, #4
.LPIC58:
	ldr	r7, [pc, r7]		@ tls_load_dot_plus_eight
	ldr	r3, [r7]
	str	r3, [sp, #1060]
	bl	getpid(PLT)
	ldr	r2, .L345+4
	mov	r1, #32
.LPIC56:
	add	r2, pc, r2
	mov	r3, r0
	mov	r0, r4
	bl	snprintf(PLT)
	ldr	r1, .L345+8
	mov	r0, r4
.LPIC57:
	add	r1, pc, r1
	bl	fopen(PLT)
	subs	r5, r0, #0
	beq	.L341
	add	r4, sp, #36
	b	.L333
.L336:
	mov	r0, r4
	mov	r1, r6
	bl	strstr(PLT)
	cmp	r0, #0
	bne	.L343
.L333:
	mov	r0, r4
	mov	r1, #1024
	mov	r2, r5
	bl	fgets(PLT)
	cmp	r0, #0
	bne	.L336
	mov	r4, r0
.L335:
	mov	r0, r5
	bl	fclose(PLT)
.L334:
	ldr	r2, [sp, #1060]
	mov	r0, r4
	ldr	r3, [r7]
	cmp	r2, r3
	bne	.L344
	add	sp, sp, #1056
	add	sp, sp, #12
	@ sp needed
	ldmfd	sp!, {r4, r5, r6, r7, pc}
.L343:
	mov	r0, r4
	mov	r1, #0
	mov	r2, #16
	bl	strtoul(PLT)
	mov	r4, r0
	b	.L335
.L341:
	mov	r4, r5
	b	.L334
.L344:
	bl	__stack_chk_fail(PLT)
.L346:
	.align	2
.L345:
	.word	__stack_chk_guard(GOT_PREL)+(.-(.LPIC58+8))
	.word	.LC81-(.LPIC56+8)
	.word	.LC82-(.LPIC57+8)
	.fnend
	.size	_Z12GetBaseAnogsPKc, .-_Z12GetBaseAnogsPKc
	.section	.text._Z15AnogsRealOffsetm,"ax",%progbits
	.align	2
	.global	_Z15AnogsRealOffsetm
	.hidden	_Z15AnogsRealOffsetm
	.type	_Z15AnogsRealOffsetm, %function
_Z15AnogsRealOffsetm:
	.fnstart
	@ args = 0, pretend = 0, frame = 0
	@ frame_needed = 0, uses_anonymous_args = 0
	stmfd	sp!, {r3, r4, r5, lr}
	.save {r3, r4, r5, lr}
	mov	r5, r0
	ldr	r4, .L350
.LPIC59:
	add	r4, pc, r4
	ldr	r0, [r4]
	cmp	r0, #0
	bne	.L348
	ldr	r0, .L350+4
.LPIC60:
	add	r0, pc, r0
	bl	_Z12GetBaseAnogsPKc(PLT)
	str	r0, [r4]
.L348:
	add	r0, r0, r5
	ldmfd	sp!, {r3, r4, r5, pc}
.L351:
	.align	2
.L350:
	.word	.LANCHOR11-(.LPIC59+8)
	.word	.LC83-(.LPIC60+8)
	.fnend
	.size	_Z15AnogsRealOffsetm, .-_Z15AnogsRealOffsetm
	.section	.text._Z9setShaderPKc,"ax",%progbits
	.align	2
	.global	_Z9setShaderPKc
	.hidden	_Z9setShaderPKc
	.type	_Z9setShaderPKc, %function
_Z9setShaderPKc:
	.fnstart
	@ args = 0, pretend = 0, frame = 0
	@ frame_needed = 0, uses_anonymous_args = 0
	@ link register save eliminated.
	ldr	r3, .L353
.LPIC62:
	add	r3, pc, r3
	str	r0, [r3]
	bx	lr
.L354:
	.align	2
.L353:
	.word	.LANCHOR12-(.LPIC62+8)
	.fnend
	.size	_Z9setShaderPKc, .-_Z9setShaderPKc
	.section	.text._Z9getShaderv,"ax",%progbits
	.align	2
	.global	_Z9getShaderv
	.hidden	_Z9getShaderv
	.type	_Z9getShaderv, %function
_Z9getShaderv:
	.fnstart
	@ args = 0, pretend = 0, frame = 0
	@ frame_needed = 0, uses_anonymous_args = 0
	@ link register save eliminated.
	ldr	r3, .L356
.LPIC63:
	ldr	r0, [pc, r3]		@ tls_load_dot_plus_eight
	bx	lr
.L357:
	.align	2
.L356:
	.word	.LANCHOR12-(.LPIC63+8)
	.fnend
	.size	_Z9getShaderv, .-_Z9getShaderv
	.section	.text._Z11SetWallhackb,"ax",%progbits
	.align	2
	.global	_Z11SetWallhackb
	.hidden	_Z11SetWallhackb
	.type	_Z11SetWallhackb, %function
_Z11SetWallhackb:
	.fnstart
	@ args = 0, pretend = 0, frame = 0
	@ frame_needed = 0, uses_anonymous_args = 0
	@ link register save eliminated.
	ldr	r3, .L359
.LPIC64:
	add	r3, pc, r3
	strb	r0, [r3]
	bx	lr
.L360:
	.align	2
.L359:
	.word	.LANCHOR13-(.LPIC64+8)
	.fnend
	.size	_Z11SetWallhackb, .-_Z11SetWallhackb
	.section	.text._Z18getWallhackEnabledv,"ax",%progbits
	.align	2
	.global	_Z18getWallhackEnabledv
	.hidden	_Z18getWallhackEnabledv
	.type	_Z18getWallhackEnabledv, %function
_Z18getWallhackEnabledv:
	.fnstart
	@ args = 0, pretend = 0, frame = 0
	@ frame_needed = 0, uses_anonymous_args = 0
	@ link register save eliminated.
	ldr	r3, .L362
.LPIC65:
	add	r3, pc, r3
	ldrb	r0, [r3]	@ zero_extendqisi2
	bx	lr
.L363:
	.align	2
.L362:
	.word	.LANCHOR13-(.LPIC65+8)
	.fnend
	.size	_Z18getWallhackEnabledv, .-_Z18getWallhackEnabledv
	.section	.text._Z15isCurrentShaderPKc,"ax",%progbits
	.align	2
	.global	_Z15isCurrentShaderPKc
	.hidden	_Z15isCurrentShaderPKc
	.type	_Z15isCurrentShaderPKc, %function
_Z15isCurrentShaderPKc:
	.fnstart
	@ args = 0, pretend = 0, frame = 8
	@ frame_needed = 0, uses_anonymous_args = 0
	stmfd	sp!, {r4, r5, lr}
	.save {r4, r5, lr}
	.pad #12
	sub	sp, sp, #12
	ldr	r4, .L368
	mov	r5, r0
	mov	r1, sp
	movw	r0, #35725
.LPIC68:
	ldr	r4, [pc, r4]		@ tls_load_dot_plus_eight
	ldr	r3, [r4]
	str	r3, [sp, #4]
	bl	glGetIntegerv(PLT)
	ldr	r3, .L368+4
	mov	r1, r5
	ldr	r0, [sp]
.LPIC67:
	add	r3, pc, r3
	ldr	r3, [r3]
	blx	r3
	ldr	r2, [sp, #4]
	ldr	r3, [r4]
	adds	r0, r0, #1
	movne	r0, #1
	cmp	r2, r3
	bne	.L367
	add	sp, sp, #12
	@ sp needed
	ldmfd	sp!, {r4, r5, pc}
.L367:
	bl	__stack_chk_fail(PLT)
.L369:
	.align	2
.L368:
	.word	__stack_chk_guard(GOT_PREL)+(.-(.LPIC68+8))
	.word	.LANCHOR0-(.LPIC67+8)
	.fnend
	.size	_Z15isCurrentShaderPKc, .-_Z15isCurrentShaderPKc
	.section	.text._Z22BrunoDevglDrawElementsjijPKv,"ax",%progbits
	.align	2
	.global	_Z22BrunoDevglDrawElementsjijPKv
	.hidden	_Z22BrunoDevglDrawElementsjijPKv
	.type	_Z22BrunoDevglDrawElementsjijPKv, %function
_Z22BrunoDevglDrawElementsjijPKv:
	.fnstart
	@ args = 0, pretend = 0, frame = 0
	@ frame_needed = 0, uses_anonymous_args = 0
	stmfd	sp!, {r4, r5, r6, r7, r8, lr}
	.save {r4, r5, r6, r7, r8, lr}
	mov	r6, r0
	ldr	r5, .L381
	mov	r4, r1
	mov	r8, r2
	mov	r7, r3
.LPIC69:
	add	r5, pc, r5
	ldr	ip, [r5]
	blx	ip
	movw	ip, #9999
	cmp	r4, ip
	movgt	ip, #0
	movle	ip, #1
	cmp	r6, #4
	moveq	r0, ip
	orrne	r0, ip, #1
	cmp	r0, #0
	ldmnefd	sp!, {r4, r5, r6, r7, r8, pc}
	ldr	r3, .L381+4
.LPIC70:
	ldr	r0, [pc, r3]		@ tls_load_dot_plus_eight
	bl	_Z15isCurrentShaderPKc(PLT)
	cmp	r0, #0
	ldmeqfd	sp!, {r4, r5, r6, r7, r8, pc}
	ldr	r3, .L381+8
.LPIC71:
	add	r3, pc, r3
	ldrb	r3, [r3]	@ zero_extendqisi2
	cmp	r3, #0
	ldmeqfd	sp!, {r4, r5, r6, r7, r8, pc}
	movw	r0, #2929
	bl	glDisable(PLT)
	ldr	ip, [r5]
	mov	r1, r4
	mov	r2, r8
	mov	r3, r7
	mov	r0, #4
	blx	ip
	movw	r0, #2929
	ldmfd	sp!, {r4, r5, r6, r7, r8, lr}
	b	glEnable(PLT)
.L382:
	.align	2
.L381:
	.word	.LANCHOR14-(.LPIC69+8)
	.word	.LANCHOR12-(.LPIC70+8)
	.word	.LANCHOR13-(.LPIC71+8)
	.fnend
	.size	_Z22BrunoDevglDrawElementsjijPKv, .-_Z22BrunoDevglDrawElementsjijPKv
	.section	.text._Z8mlovinitv,"ax",%progbits
	.align	2
	.global	_Z8mlovinitv
	.hidden	_Z8mlovinitv
	.type	_Z8mlovinitv, %function
_Z8mlovinitv:
	.fnstart
	@ args = 0, pretend = 0, frame = 0
	@ frame_needed = 0, uses_anonymous_args = 0
	stmfd	sp!, {r3, r4, r5, lr}
	.save {r3, r4, r5, lr}
	mov	r1, #1
	ldr	r5, .L388
	mov	r3, #0
	ldr	r0, .L388+4
.LPIC73:
	add	r5, pc, r5
.LPIC74:
	add	r0, pc, r0
	str	r3, [r5]
	bl	dlopen(PLT)
	cmp	r0, #0
	mov	r4, r0
	str	r0, [r5]
	beq	.L387
	mov	r0, #1
	ldmfd	sp!, {r3, r4, r5, pc}
.L387:
	bl	dlerror(PLT)
	ldr	r1, .L388+8
	ldr	r2, .L388+12
.LPIC76:
	add	r1, pc, r1
.LPIC77:
	add	r2, pc, r2
	mov	r3, r0
	mov	r0, #6
	bl	__android_log_print(PLT)
	mov	r0, r4
	ldmfd	sp!, {r3, r4, r5, pc}
.L389:
	.align	2
.L388:
	.word	.LANCHOR15-(.LPIC73+8)
	.word	.LC84-(.LPIC74+8)
	.word	.LC85-(.LPIC76+8)
	.word	.LC86-(.LPIC77+8)
	.fnend
	.size	_Z8mlovinitv, .-_Z8mlovinitv
	.section	.text._Z10LogShadersv,"ax",%progbits
	.align	2
	.global	_Z10LogShadersv
	.hidden	_Z10LogShadersv
	.type	_Z10LogShadersv, %function
_Z10LogShadersv:
	.fnstart
	@ args = 0, pretend = 0, frame = 0
	@ frame_needed = 0, uses_anonymous_args = 0
	ldr	r3, .L393
	ldr	r1, .L393+4
.LPIC78:
	add	r3, pc, r3
	stmfd	sp!, {r4, lr}
	.save {r4, lr}
.LPIC79:
	add	r1, pc, r1
	ldr	r0, [r3]
	bl	dlsym(PLT)
	mov	r4, r0
	bl	dlerror(PLT)
	subs	r3, r0, #0
	beq	.L391
	ldr	r1, .L393+8
	mov	r0, #6
	ldr	r2, .L393+12
.LPIC80:
	add	r1, pc, r1
.LPIC81:
	add	r2, pc, r2
	ldmfd	sp!, {r4, lr}
	b	__android_log_print(PLT)
.L391:
	ldr	r1, .L393+16
	mov	r0, r4
	ldr	r2, .L393+20
.LPIC82:
	add	r1, pc, r1
.LPIC83:
	add	r2, pc, r2
	ldmfd	sp!, {r4, lr}
	b	MSHookFunction(PLT)
.L394:
	.align	2
.L393:
	.word	.LANCHOR15-(.LPIC78+8)
	.word	.LC87-(.LPIC79+8)
	.word	.LC85-(.LPIC80+8)
	.word	.LC88-(.LPIC81+8)
	.word	_Z32BrunoDevnew_glGetUniformLocationjPKc-(.LPIC82+8)
	.word	.LANCHOR0-(.LPIC83+8)
	.fnend
	.size	_Z10LogShadersv, .-_Z10LogShadersv
	.section	.text._Z8Wallhackv,"ax",%progbits
	.align	2
	.global	_Z8Wallhackv
	.hidden	_Z8Wallhackv
	.type	_Z8Wallhackv, %function
_Z8Wallhackv:
	.fnstart
	@ args = 0, pretend = 0, frame = 0
	@ frame_needed = 0, uses_anonymous_args = 0
	ldr	r3, .L398
	ldr	r1, .L398+4
.LPIC84:
	add	r3, pc, r3
	stmfd	sp!, {r4, lr}
	.save {r4, lr}
.LPIC85:
	add	r1, pc, r1
	ldr	r0, [r3]
	bl	dlsym(PLT)
	mov	r4, r0
	bl	dlerror(PLT)
	subs	r3, r0, #0
	beq	.L396
	ldr	r1, .L398+8
	mov	r0, #6
	ldr	r2, .L398+12
.LPIC86:
	add	r1, pc, r1
.LPIC87:
	add	r2, pc, r2
	ldmfd	sp!, {r4, lr}
	b	__android_log_print(PLT)
.L396:
	ldr	r1, .L398+16
	mov	r0, r4
	ldr	r2, .L398+20
.LPIC88:
	add	r1, pc, r1
.LPIC89:
	add	r2, pc, r2
	ldmfd	sp!, {r4, lr}
	b	MSHookFunction(PLT)
.L399:
	.align	2
.L398:
	.word	.LANCHOR15-(.LPIC84+8)
	.word	.LC89-(.LPIC85+8)
	.word	.LC85-(.LPIC86+8)
	.word	.LC90-(.LPIC87+8)
	.word	_Z22BrunoDevglDrawElementsjijPKv-(.LPIC88+8)
	.word	.LANCHOR14-(.LPIC89+8)
	.fnend
	.size	_Z8Wallhackv, .-_Z8Wallhackv
	.section	.text._Z9InitChamsPv,"ax",%progbits
	.align	2
	.global	_Z9InitChamsPv
	.hidden	_Z9InitChamsPv
	.type	_Z9InitChamsPv, %function
_Z9InitChamsPv:
	.fnstart
	@ args = 0, pretend = 0, frame = 0
	@ frame_needed = 0, uses_anonymous_args = 0
	stmfd	sp!, {r4, lr}
	.save {r4, lr}
	ldr	r4, .L405
.LPIC90:
	add	r4, pc, r4
.L401:
	bl	_Z8mlovinitv(PLT)
	strb	r0, [r4]
	mov	r0, #1
	bl	sleep(PLT)
	ldrb	r3, [r4]	@ zero_extendqisi2
	cmp	r3, #0
	beq	.L401
	ldr	r3, .L405+4
	ldr	r2, .L405+8
.LPIC92:
	add	r3, pc, r3
.LPIC93:
	add	r2, pc, r2
	str	r2, [r3]
	bl	_Z10LogShadersv(PLT)
	bl	_Z8Wallhackv(PLT)
	mov	r0, #0
	ldmfd	sp!, {r4, pc}
.L406:
	.align	2
.L405:
	.word	.LANCHOR16-(.LPIC90+8)
	.word	.LANCHOR12-(.LPIC92+8)
	.word	.LC91-(.LPIC93+8)
	.fnend
	.size	_Z9InitChamsPv, .-_Z9InitChamsPv
	.section	.text._Z12AfindLibraryPKc,"ax",%progbits
	.align	2
	.global	_Z12AfindLibraryPKc
	.hidden	_Z12AfindLibraryPKc
	.type	_Z12AfindLibraryPKc, %function
_Z12AfindLibraryPKc:
	.fnstart
	@ args = 0, pretend = 0, frame = 1288
	@ frame_needed = 0, uses_anonymous_args = 0
	stmfd	sp!, {r4, r5, r6, r7, lr}
	.save {r4, r5, r6, r7, lr}
	.pad #1280
	sub	sp, sp, #1280
	ldr	r7, .L422
	.pad #12
	sub	sp, sp, #12
	add	r5, sp, #4
	add	r4, sp, #260
	mov	r1, #0
	mov	r2, #255
.LPIC98:
	ldr	r7, [pc, r7]		@ tls_load_dot_plus_eight
	mov	r6, r0
	mov	r0, r5
	ldr	r3, [r7]
	str	r3, [sp, #1284]
	bl	memset(PLT)
	mov	r1, #0
	mov	r2, #1024
	mov	r0, r4
	bl	memset(PLT)
	ldr	r3, .L422+4
.LPIC95:
	add	r3, pc, r3
	ldmia	r3, {r0, r1, r2, r3}
	stmia	r5, {r0, r1, r2, r3}
	mov	r0, r5
	ldr	r1, .L422+8
.LPIC96:
	add	r1, pc, r1
	bl	fopen(PLT)
	subs	r5, r0, #0
	bne	.L414
	b	.L419
.L411:
	mov	r0, r4
	mov	r1, r6
	bl	strstr(PLT)
	cmp	r0, #0
	bne	.L420
.L414:
	mov	r0, r4
	mov	r1, #1024
	mov	r2, r5
	bl	fgets(PLT)
	cmp	r0, #0
	bne	.L411
	mov	r4, r0
.L410:
	mov	r0, r5
	bl	fclose(PLT)
.L409:
	ldr	r2, [sp, #1284]
	mov	r0, r4
	ldr	r3, [r7]
	cmp	r2, r3
	bne	.L421
	add	sp, sp, #1280
	add	sp, sp, #12
	@ sp needed
	ldmfd	sp!, {r4, r5, r6, r7, pc}
.L420:
	mov	r0, r4
	mov	r1, #0
	mov	r2, #16
	bl	strtoul(PLT)
	mov	r4, r0
	b	.L410
.L419:
	ldr	r0, .L422+12
	mov	r4, r5
.LPIC97:
	add	r0, pc, r0
	bl	perror(PLT)
	b	.L409
.L421:
	bl	__stack_chk_fail(PLT)
.L423:
	.align	2
.L422:
	.word	__stack_chk_guard(GOT_PREL)+(.-(.LPIC98+8))
	.word	.LC92-(.LPIC95+8)
	.word	.LC82-(.LPIC96+8)
	.word	.LC93-(.LPIC97+8)
	.fnend
	.size	_Z12AfindLibraryPKc, .-_Z12AfindLibraryPKc
	.section	.text._Z19AgetAbsoluteAddressPKcl,"ax",%progbits
	.align	2
	.global	_Z19AgetAbsoluteAddressPKcl
	.hidden	_Z19AgetAbsoluteAddressPKcl
	.type	_Z19AgetAbsoluteAddressPKcl, %function
_Z19AgetAbsoluteAddressPKcl:
	.fnstart
	@ args = 0, pretend = 0, frame = 0
	@ frame_needed = 0, uses_anonymous_args = 0
	stmfd	sp!, {r3, r4, r5, lr}
	.save {r3, r4, r5, lr}
	mov	r5, r1
	ldr	r4, .L427
.LPIC99:
	add	r4, pc, r4
	ldr	r3, [r4]
	cmp	r3, #0
	bne	.L425
	bl	_Z12AfindLibraryPKc(PLT)
	mov	r3, r0
	str	r0, [r4]
.L425:
	add	r0, r3, r5
	ldmfd	sp!, {r3, r4, r5, pc}
.L428:
	.align	2
.L427:
	.word	.LANCHOR17-(.LPIC99+8)
	.fnend
	.size	_Z19AgetAbsoluteAddressPKcl, .-_Z19AgetAbsoluteAddressPKcl
	.section	.text._ZL18WorldToScreenPointPv7Vector3,"ax",%progbits
	.align	2
	.type	_ZL18WorldToScreenPointPv7Vector3, %function
_ZL18WorldToScreenPointPv7Vector3:
	.fnstart
	@ args = 0, pretend = 0, frame = 16
	@ frame_needed = 0, uses_anonymous_args = 0
	stmfd	sp!, {r4, r5, lr}
	.save {r4, r5, lr}
	mov	r4, r0
	ldr	r0, .L431
	.pad #28
	sub	sp, sp, #28
	mov	r5, r1
	movw	r1, #32656
	movt	r1, 639
.LPIC101:
	add	r0, pc, r0
	fsts	s0, [sp, #12]
	fsts	s1, [sp, #16]
	fsts	s2, [sp, #20]
	bl	_Z19AgetAbsoluteAddressPKcl(PLT)
	ldr	lr, [sp, #20]
	add	r3, sp, #12
	mov	r1, r5
	ldmia	r3, {r2, r3}
	str	lr, [sp]
	mov	ip, r0
	mov	r0, r4
	blx	ip
	mov	r0, r4
	add	sp, sp, #28
	@ sp needed
	ldmfd	sp!, {r4, r5, pc}
.L432:
	.align	2
.L431:
	.word	.LC94-(.LPIC101+8)
	.fnend
	.size	_ZL18WorldToScreenPointPv7Vector3, .-_ZL18WorldToScreenPointPv7Vector3
	.section	.text._Z9AntCheatsPv,"ax",%progbits
	.align	2
	.global	_Z9AntCheatsPv
	.hidden	_Z9AntCheatsPv
	.type	_Z9AntCheatsPv, %function
_Z9AntCheatsPv:
	.fnstart
	@ args = 0, pretend = 0, frame = 0
	@ frame_needed = 0, uses_anonymous_args = 0
	stmfd	sp!, {r3, r4, r5, lr}
	.save {r3, r4, r5, lr}
	subs	r5, r0, #0
	ldmeqfd	sp!, {r3, r4, r5, pc}
	ldr	r4, .L441
.LPIC102:
	add	r4, pc, r4
.L438:
	mov	r0, r4
	mov	r1, #0
	bl	_Z19AgetAbsoluteAddressPKcl(PLT)
	cmp	r0, #0
	beq	.L440
	add	r2, r5, #90112
	add	r5, r5, #86016
	mov	r3, #0
	mov	r0, r3
	strb	r3, [r2, #1294]
	strb	r3, [r5, #104]
	bl	pthread_exit(PLT)
.L440:
	mov	r0, #1
	bl	sleep(PLT)
	b	.L438
.L442:
	.align	2
.L441:
	.word	.LC94-(.LPIC102+8)
	.fnend
	.size	_Z9AntCheatsPv, .-_Z9AntCheatsPv
	.section	.text._ZN8Vvector3C2ERKS_,"ax",%progbits
	.align	2
	.global	_ZN8Vvector3C2ERKS_
	.hidden	_ZN8Vvector3C2ERKS_
	.type	_ZN8Vvector3C2ERKS_, %function
_ZN8Vvector3C2ERKS_:
	.fnstart
	@ args = 0, pretend = 0, frame = 0
	@ frame_needed = 0, uses_anonymous_args = 0
	ldr	ip, [r1, #4]	@ float
	ldr	r2, [r1, #8]	@ float
	str	lr, [sp, #-4]!
	.save {lr}
	ldr	lr, [r1]	@ float
	str	ip, [r0, #4]	@ float
	str	r2, [r0, #8]	@ float
	str	lr, [r0]	@ float
	ldr	pc, [sp], #4
	.fnend
	.size	_ZN8Vvector3C2ERKS_, .-_ZN8Vvector3C2ERKS_
	.global	_ZN8Vvector3C1ERKS_
	.hidden	_ZN8Vvector3C1ERKS_
_ZN8Vvector3C1ERKS_ = _ZN8Vvector3C2ERKS_
	.section	.text._ZN8Vvector3D2Ev,"ax",%progbits
	.align	2
	.global	_ZN8Vvector3D2Ev
	.hidden	_ZN8Vvector3D2Ev
	.type	_ZN8Vvector3D2Ev, %function
_ZN8Vvector3D2Ev:
	.fnstart
	@ args = 0, pretend = 0, frame = 0
	@ frame_needed = 0, uses_anonymous_args = 0
	@ link register save eliminated.
	bx	lr
	.fnend
	.size	_ZN8Vvector3D2Ev, .-_ZN8Vvector3D2Ev
	.global	_ZN8Vvector3D1Ev
	.hidden	_ZN8Vvector3D1Ev
_ZN8Vvector3D1Ev = _ZN8Vvector3D2Ev
	.section	.text._Z17isOutsideSafezone7Vector3S_,"ax",%progbits
	.align	2
	.global	_Z17isOutsideSafezone7Vector3S_
	.hidden	_Z17isOutsideSafezone7Vector3S_
	.type	_Z17isOutsideSafezone7Vector3S_, %function
_Z17isOutsideSafezone7Vector3S_:
	.fnstart
	@ args = 16, pretend = 8, frame = 16
	@ frame_needed = 0, uses_anonymous_args = 0
	@ link register save eliminated.
	.pad #8
	sub	sp, sp, #8
	flds	s10, .L457
	.pad #16
	sub	sp, sp, #16
	flds	s14, [sp, #24]
	str	r3, [sp, #20]
	add	r3, sp, #16
	flds	s11, .L457+4
	stmdb	r3, {r0, r1, r2}
	flds	s15, [sp, #20]
	fmuls	s8, s14, s10
	flds	s12, [sp, #8]
	flds	s13, [sp, #4]
	fmuls	s9, s15, s11
	fmuls	s14, s14, s11
	fcmpes	s8, s12
	fmuls	s15, s15, s10
	fmstat
	movgt	r0, #1
	movle	r0, #0
	fcmpes	s9, s13
	fmstat
	fcmpes	s14, s12
	orrmi	r0, r0, #2
	fmstat
	fcmpes	s15, s13
	orrmi	r0, r0, #4
	fmstat
	orrgt	r0, r0, #8
	add	sp, sp, #16
	@ sp needed
	add	sp, sp, #8
	bx	lr
.L458:
	.align	2
.L457:
	.word	1025758986
	.word	1064682127
	.fnend
	.size	_Z17isOutsideSafezone7Vector3S_, .-_Z17isOutsideSafezone7Vector3S_
	.section	.text._Z18pushToScreenBorder7Vector3S_ii,"ax",%progbits
	.align	2
	.global	_Z18pushToScreenBorder7Vector3S_ii
	.hidden	_Z18pushToScreenBorder7Vector3S_ii
	.type	_Z18pushToScreenBorder7Vector3S_ii, %function
_Z18pushToScreenBorder7Vector3S_ii:
	.fnstart
	@ args = 20, pretend = 0, frame = 16
	@ frame_needed = 0, uses_anonymous_args = 0
	str	lr, [sp, #-4]!
	.save {lr}
	.pad #20
	sub	sp, sp, #20
	mov	ip, r0
	add	r0, sp, #16
	ldr	lr, [sp, #36]
	stmdb	r0, {r1, r2, r3}
	tst	lr, #1
	flds	s14, [sp, #8]
	mov	r0, ip
	ldr	r3, [sp, #40]
	rsbne	r2, r3, #0
	flds	s15, [sp, #4]
	fmsrne	s14, r2	@ int
	ftosizseq	s14, s14
	tst	lr, #2
	fldsne	s15, [sp, #24]
	ftosizsne	s15, s15
	fmrsne	r2, s15	@ int
	ftosizseq	s15, s15
	addne	r2, r2, r3
	fmsrne	s15, r2	@ int
	tst	lr, #4
	fldsne	s14, [sp, #28]
	ftosizsne	s14, s14
	fmrsne	r2, s14	@ int
	addne	r2, r2, r3
	fmsrne	s14, r2	@ int
	tst	lr, #8
	rsbne	r3, r3, #0
	fsitos	s14, s14
	fmsrne	s15, r3	@ int
	mov	r3, #0
	str	r3, [ip, #8]	@ float
	fsitos	s15, s15
	fsts	s14, [ip, #4]
	fsts	s15, [ip]
	add	sp, sp, #20
	@ sp needed
	ldr	pc, [sp], #4
	.fnend
	.size	_Z18pushToScreenBorder7Vector3S_ii, .-_Z18pushToScreenBorder7Vector3S_ii
	.section	.text._Z13MarixToVector7FMatrix,"ax",%progbits
	.align	2
	.global	_Z13MarixToVector7FMatrix
	.hidden	_Z13MarixToVector7FMatrix
	.type	_Z13MarixToVector7FMatrix, %function
_Z13MarixToVector7FMatrix:
	.fnstart
	@ args = 68, pretend = 16, frame = 0
	@ frame_needed = 0, uses_anonymous_args = 0
	.pad #16
	sub	sp, sp, #16
	stmfd	sp!, {r4, r5, r6, lr}
	.save {r4, r5, r6, lr}
	add	lr, sp, #20
	ldr	r6, [sp, #72]	@ float
	ldr	r5, [sp, #68]	@ float
	ldr	r4, [sp, #76]	@ float
	str	r6, [r0, #4]	@ float
	stmia	lr, {r1, r2, r3}
	str	r5, [r0]	@ float
	str	r4, [r0, #8]	@ float
	ldmfd	sp!, {r4, r5, r6, lr}
	add	sp, sp, #16
	bx	lr
	.fnend
	.size	_Z13MarixToVector7FMatrix, .-_Z13MarixToVector7FMatrix
	.section	.text._Z11MatrixMulti7FMatrixS_,"ax",%progbits
	.align	2
	.global	_Z11MatrixMulti7FMatrixS_
	.hidden	_Z11MatrixMulti7FMatrixS_
	.type	_Z11MatrixMulti7FMatrixS_, %function
_Z11MatrixMulti7FMatrixS_:
	.fnstart
	@ args = 132, pretend = 16, frame = 0
	@ frame_needed = 0, uses_anonymous_args = 0
	.pad #16
	sub	sp, sp, #16
	stmfd	sp!, {r4, lr}
	.save {r4, lr}
	mov	r4, r0
	fstmfdd	sp!, {d8, d9, d10, d11, d12, d13, d14, d15}
	.vsave {d8, d9, d10, d11, d12, d13, d14, d15}
	add	ip, sp, #76
	stmia	ip, {r1, r2, r3}
	mov	r1, #0
	mov	r2, #64
	bl	memset(PLT)
	flds	s14, .L477
	mov	r0, r4
	flds	s0, [sp, #76]
	flds	s9, [sp, #92]
	flds	s29, [sp, #140]
	flds	s28, [sp, #144]
	flds	s27, [sp, #148]
	flds	s26, [sp, #152]
	fcpys	s15, s14
	flds	s10, [sp, #80]
	fcpys	s3, s14
	flds	s11, [sp, #96]
	fcpys	s4, s14
	flds	s25, [sp, #156]
	fcpys	s5, s14
	flds	s24, [sp, #160]
	fcpys	s6, s14
	flds	s23, [sp, #164]
	fcpys	s7, s14
	flds	s22, [sp, #168]
	fcpys	s8, s14
	flds	s12, [sp, #84]
	fmacs	s14, s0, s29
	flds	s13, [sp, #100]
	flds	s21, [sp, #172]
	flds	s20, [sp, #176]
	flds	s19, [sp, #180]
	flds	s18, [sp, #184]
	flds	s31, [sp, #88]
	flds	s17, [sp, #188]
	fmacs	s15, s0, s28
	flds	s16, [sp, #192]
	flds	s1, [sp, #196]
	flds	s2, [sp, #200]
	flds	s30, [sp, #104]
	fmacs	s3, s0, s27
	fmacs	s4, s0, s26
	flds	s0, [sp, #120]
	fmacs	s5, s9, s29
	fmacs	s6, s9, s28
	fmacs	s7, s9, s27
	fmacs	s8, s9, s26
	flds	s9, .L477
	fmacs	s14, s10, s25
	fmacs	s15, s10, s24
	fmacs	s3, s10, s23
	fmacs	s4, s10, s22
	fmacs	s5, s11, s25
	fmacs	s6, s11, s24
	fmacs	s7, s11, s23
	fmacs	s8, s11, s22
	fmacs	s14, s12, s21
	fmacs	s15, s12, s20
	fmacs	s3, s12, s19
	fmacs	s4, s12, s18
	fmacs	s5, s13, s21
	fmacs	s6, s13, s20
	fmacs	s7, s13, s19
	fmacs	s8, s13, s18
	fmacs	s14, s31, s17
	fmacs	s15, s31, s16
	fsts	s14, [r4]
	fmacs	s5, s30, s17
	fsts	s15, [r4, #4]
	fmacs	s6, s30, s16
	fsts	s5, [r4, #16]
	fmacs	s3, s31, s1
	fsts	s6, [r4, #20]
	fmacs	s4, s31, s2
	fsts	s3, [r4, #8]
	fmacs	s7, s30, s1
	fsts	s4, [r4, #12]
	fmacs	s8, s30, s2
	fsts	s7, [r4, #24]
	fsts	s8, [r4, #28]
	fcpys	s10, s9
	flds	s30, [sp, #108]
	fcpys	s11, s9
	flds	s3, [sp, #124]
	fcpys	s12, s9
	flds	s4, [sp, #112]
	fcpys	s13, s9
	flds	s31, [sp, #128]
	fcpys	s14, s9
	flds	s5, [sp, #116]
	fcpys	s15, s9
	flds	s6, [sp, #132]
	fcpys	s8, s9
	flds	s7, [sp, #136]
	fmacs	s8, s30, s29
	fmacs	s9, s3, s29
	fmacs	s10, s30, s28
	fmacs	s11, s3, s28
	fmacs	s12, s30, s27
	fmacs	s13, s30, s26
	fmacs	s14, s3, s27
	fmacs	s15, s3, s26
	fmacs	s8, s4, s25
	fmacs	s9, s31, s25
	fmacs	s10, s4, s24
	fmacs	s11, s31, s24
	fmacs	s12, s4, s23
	fmacs	s13, s4, s22
	fmacs	s14, s31, s23
	fmacs	s15, s31, s22
	fmacs	s8, s5, s21
	fmacs	s9, s6, s21
	fmacs	s10, s5, s20
	fmacs	s11, s6, s20
	fmacs	s12, s5, s19
	fmacs	s13, s5, s18
	fmacs	s14, s6, s19
	fmacs	s15, s6, s18
	fmacs	s8, s0, s17
	fmacs	s9, s7, s17
	fsts	s8, [r4, #32]
	fmacs	s10, s0, s16
	fsts	s9, [r4, #48]
	fmacs	s11, s7, s16
	fldmfdd	sp!, {d8-d15}
	fsts	s10, [r4, #36]
	fmacs	s12, s0, s1
	fsts	s11, [r4, #52]
	fmacs	s13, s0, s2
	fsts	s12, [r4, #40]
	fmacs	s14, s7, s1
	fsts	s13, [r4, #44]
	fmacs	s15, s7, s2
	fsts	s14, [r4, #56]
	fsts	s15, [r4, #60]
	ldmfd	sp!, {r4, lr}
	add	sp, sp, #16
	bx	lr
.L478:
	.align	2
.L477:
	.word	0
	.fnend
	.size	_Z11MatrixMulti7FMatrixS_, .-_Z11MatrixMulti7FMatrixS_
	.section	.text._Z17TransformToMatrix10FTransform,"ax",%progbits
	.align	2
	.global	_Z17TransformToMatrix10FTransform
	.hidden	_Z17TransformToMatrix10FTransform
	.type	_Z17TransformToMatrix10FTransform, %function
_Z17TransformToMatrix10FTransform:
	.fnstart
	@ args = 44, pretend = 16, frame = 0
	@ frame_needed = 0, uses_anonymous_args = 0
	.pad #16
	sub	sp, sp, #16
	fconsts	s12, #112
	str	lr, [sp, #-4]!
	.save {lr}
	add	ip, sp, #8
	flds	s8, [sp, #20]
	ldr	lr, [sp, #24]	@ float
	flds	s3, [sp, #40]
	stmia	ip, {r1, r2, r3}
	mov	r2, #0
	flds	s15, [sp, #8]
	ldr	ip, [sp, #28]	@ float
	ldr	r1, [sp, #32]	@ float
	flds	s13, [sp, #12]
	str	lr, [r0, #48]	@ float
	str	ip, [r0, #52]	@ float
	flds	s14, [sp, #16]
	str	r1, [r0, #56]	@ float
	str	r2, [r0, #12]	@ float
	fadds	s9, s13, s13
	str	r2, [r0, #28]	@ float
	flds	s5, [sp, #36]
	str	r2, [r0, #44]	@ float
	flds	s4, [sp, #44]
	ldr	lr, [sp], #4
	fsts	s12, [r0, #60]
	add	sp, sp, #16
	fadds	s11, s14, s14
	fadds	s7, s15, s15
	fmuls	s2, s9, s13
	fmuls	s6, s7, s15
	fmuls	s14, s11, s14
	fmuls	s10, s9, s15
	fmuls	s7, s7, s8
	fmuls	s13, s11, s13
	fmuls	s15, s11, s15
	fmuls	s9, s9, s8
	fmuls	s11, s11, s8
	fadds	s8, s6, s14
	fadds	s14, s2, s14
	fsubs	s14, s12, s14
	fmuls	s14, s14, s5
	fadds	s6, s6, s2
	fsts	s14, [r0]
	fsubs	s2, s13, s7
	fmuls	s14, s2, s4
	fsubs	s8, s12, s8
	fsts	s14, [r0, #36]
	fsubs	s12, s12, s6
	fsubs	s6, s10, s11
	fmuls	s14, s6, s3
	fadds	s13, s13, s7
	fsts	s14, [r0, #16]
	fadds	s11, s10, s11
	fadds	s7, s15, s9
	fsubs	s15, s15, s9
	fmuls	s10, s8, s3
	fmuls	s12, s12, s4
	fsts	s10, [r0, #20]
	fmuls	s13, s13, s3
	fsts	s12, [r0, #40]
	fmuls	s11, s11, s5
	fsts	s13, [r0, #24]
	fmuls	s14, s7, s4
	fsts	s11, [r0, #4]
	fmuls	s15, s15, s5
	fsts	s14, [r0, #32]
	fsts	s15, [r0, #8]
	bx	lr
	.fnend
	.size	_Z17TransformToMatrix10FTransform, .-_Z17TransformToMatrix10FTransform
	.section	.text._Z15RotatorToMatrix8FRotator,"ax",%progbits
	.align	2
	.global	_Z15RotatorToMatrix8FRotator
	.hidden	_Z15RotatorToMatrix8FRotator
	.type	_Z15RotatorToMatrix8FRotator, %function
_Z15RotatorToMatrix8FRotator:
	.fnstart
	@ args = 0, pretend = 0, frame = 16
	@ frame_needed = 0, uses_anonymous_args = 0
	stmfd	sp!, {r4, lr}
	.save {r4, lr}
	mov	r4, r0
	fstmfdd	sp!, {d8, d9, d10}
	.vsave {d8, d9, d10}
	flds	s21, .L483
	.pad #16
	sub	sp, sp, #16
	add	r0, sp, #16
	stmdb	r0, {r1, r2, r3}
	flds	s16, [sp, #4]
	flds	s15, [sp, #12]
	fmuls	s16, s16, s21
	flds	s17, [sp, #8]
	fmrs	r0, s16
	fmuls	s17, s17, s21
	fmuls	s21, s15, s21
	bl	sinf(PLT)
	fmsr	s19, r0
	fmrs	r0, s16
	bl	cosf(PLT)
	fmsr	s20, r0
	fmrs	r0, s17
	bl	sinf(PLT)
	fmsr	s16, r0
	fmrs	r0, s17
	bl	cosf(PLT)
	fmsr	s17, r0
	fmrs	r0, s21
	bl	sinf(PLT)
	fmsr	s18, r0
	fmrs	r0, s21
	bl	cosf(PLT)
	fmuls	s14, s18, s16
	fsts	s19, [r4, #8]
	mov	r3, #0
	str	r3, [r4, #12]	@ float
	str	r3, [r4, #28]	@ float
	str	r3, [r4, #44]	@ float
	str	r3, [r4, #48]	@ float
	str	r3, [r4, #52]	@ float
	str	r3, [r4, #56]	@ float
	mov	r3, #1065353216
	str	r3, [r4, #60]	@ float
	fmsr	s15, r0
	mov	r0, r4
	fmuls	s10, s19, s15
	fmuls	s11, s15, s16
	fmuls	s19, s19, s18
	fmuls	s12, s15, s17
	fmuls	s13, s16, s10
	fmacs	s14, s10, s17
	fmscs	s13, s17, s18
	fmscs	s11, s19, s17
	fsts	s13, [r4, #36]
	fmacs	s12, s16, s19
	fsts	s11, [r4, #16]
	fmuls	s15, s15, s20
	fsts	s12, [r4, #20]
	fmuls	s17, s20, s17
	fsts	s15, [r4, #40]
	fmuls	s16, s20, s16
	fsts	s17, [r4]
	fnmuls	s18, s18, s20
	fsts	s16, [r4, #4]
	fnegs	s15, s14
	fsts	s18, [r4, #24]
	fsts	s15, [r4, #32]
	add	sp, sp, #16
	@ sp needed
	fldmfdd	sp!, {d8-d10}
	ldmfd	sp!, {r4, pc}
.L484:
	.align	2
.L483:
	.word	1016003125
	.fnend
	.size	_Z15RotatorToMatrix8FRotator, .-_Z15RotatorToMatrix8FRotator
	.section	.text._Z13WorldToScreen7Vector315MinimalViewInfoii,"ax",%progbits
	.align	2
	.global	_Z13WorldToScreen7Vector315MinimalViewInfoii
	.hidden	_Z13WorldToScreen7Vector315MinimalViewInfoii
	.type	_Z13WorldToScreen7Vector315MinimalViewInfoii, %function
_Z13WorldToScreen7Vector315MinimalViewInfoii:
	.fnstart
	@ args = 36, pretend = 0, frame = 88
	@ frame_needed = 0, uses_anonymous_args = 0
	stmfd	sp!, {r4, r5, lr}
	.save {r4, r5, lr}
	mov	r5, r0
	fstmfdd	sp!, {d8, d9, d10}
	.vsave {d8, d9, d10}
	ldr	r4, .L492+4
	fconsts	s19, #96
	.pad #92
	sub	sp, sp, #92
.LPIC104:
	ldr	r4, [pc, r4]		@ tls_load_dot_plus_eight
	add	ip, sp, #4
	add	lr, sp, #140
	add	r0, sp, #20
	stmia	ip, {r1, r2, r3}
	ldr	ip, [r4]
	ldmia	lr, {r1, r2, r3}
	str	ip, [sp, #84]
	bl	_Z15RotatorToMatrix8FRotator(PLT)
	flds	s14, [sp, #8]
	flds	s15, [sp, #132]
	flds	s17, [sp, #24]
	fsubs	s15, s14, s15
	flds	s18, [sp, #40]
	flds	s1, [sp, #128]
	flds	s12, [sp, #4]
	fmuls	s17, s15, s17
	flds	s2, [sp, #20]
	flds	s16, [sp, #56]
	flds	s5, [sp, #36]
	flds	s13, [sp, #12]
	fmuls	s18, s15, s18
	flds	s3, [sp, #136]
	flds	s4, [sp, #28]
	flds	s6, [sp, #52]
	flds	s9, [sp, #44]
	fsubs	s12, s12, s1
	flds	s7, [sp, #152]
	flds	s8, .L492
	flds	s10, [sp, #60]
	fmacs	s17, s12, s2
	fmuls	s16, s15, s16
	fcpys	s15, s18
	fmacs	s15, s12, s5
	fsubs	s14, s13, s3
	flds	s13, [sp, #156]	@ int
	fmacs	s17, s14, s4
	fmacs	s15, s14, s9
	fmacs	s16, s12, s6
	fconsts	s11, #112
	fsitos	s20, s13
	fmuls	s13, s7, s8
	fcmps	s17, s11
	fmrs	r0, s13
	fmstat
	fcpys	s18, s15
	fcpysmi	s17, s11
	fmacs	s16, s14, s10
	bl	tanf(PLT)
	flds	s15, [sp, #160]	@ int
	ldr	r2, [sp, #84]
	ldr	r3, [r4]
	cmp	r2, r3
	fmuls	s20, s20, s19
	fsitos	s14, s15
	fmsr	s15, r0
	fdivs	s15, s20, s15
	fmuls	s16, s15, s16
	fmuls	s15, s15, s18
	fdivs	s16, s16, s17
	fdivs	s17, s15, s17
	fmscs	s16, s14, s19
	fadds	s17, s17, s20
	fsts	s16, [r5, #4]
	fsts	s17, [r5]
	bne	.L491
	mov	r0, r5
	add	sp, sp, #92
	@ sp needed
	fldmfdd	sp!, {d8-d10}
	ldmfd	sp!, {r4, r5, pc}
.L491:
	bl	__stack_chk_fail(PLT)
.L493:
	.align	2
.L492:
	.word	1007614517
	.word	__stack_chk_guard(GOT_PREL)+(.-(.LPIC104+8))
	.fnend
	.size	_Z13WorldToScreen7Vector315MinimalViewInfoii, .-_Z13WorldToScreen7Vector315MinimalViewInfoii
	.section	.text._ZN3ESP7DrawBoxE5Colorf4Rect,"axG",%progbits,_ZN3ESP7DrawBoxE5Colorf4Rect,comdat
	.align	2
	.weak	_ZN3ESP7DrawBoxE5Colorf4Rect
	.hidden	_ZN3ESP7DrawBoxE5Colorf4Rect
	.type	_ZN3ESP7DrawBoxE5Colorf4Rect, %function
_ZN3ESP7DrawBoxE5Colorf4Rect:
	.fnstart
	@ args = 40, pretend = 16, frame = 0
	@ frame_needed = 0, uses_anonymous_args = 0
	.pad #16
	sub	sp, sp, #16
	ldr	ip, [r0]
	stmfd	sp!, {r4, lr}
	.save {r4, lr}
	cmp	ip, #0
	fstmfdd	sp!, {d8, d9, d10, d11, d12}
	.vsave {d8, d9, d10, d11, d12}
	.pad #56
	sub	sp, sp, #56
	add	lr, sp, #108
	flds	s18, [sp, #128]
	stmia	lr, {r1, r2, r3}
	flds	s8, [sp, #136]
	flds	s19, [sp, #132]
	flds	s10, [sp, #140]
	fadds	s17, s18, s8
	flds	s23, [sp, #108]
	flds	s22, [sp, #112]
	flds	s21, [sp, #116]
	flds	s20, [sp, #124]
	flds	s24, [sp, #120]
	fadds	s16, s19, s10
	beq	.L494
	ldr	r1, [r0, #4]
	cmp	r1, #0
	beq	.L494
	ldr	r3, [r0, #8]
	mov	r4, r0
	cmp	r3, #0
	beq	.L520
	ldr	r3, [ip]
	mov	r0, ip
	ldr	r3, [r3, #124]
	blx	r3
	ldr	r2, .L521
	ldr	r3, .L521+4
.LPIC105:
	add	r2, pc, r2
.LPIC106:
	add	r3, pc, r3
	mov	r1, r0
	ldr	r0, [r4]
	ldr	ip, [r0]
	ldr	ip, [ip, #132]
	blx	ip
	fcvtds	d7, s19
	ftosizs	s13, s24
	mov	r2, r0
	ldmia	r4, {r0, r1, r3}
	fstd	d7, [sp, #32]
	fstd	d7, [sp, #48]
	ftosizs	s15, s23
	fsts	s13, [sp]	@ int
	fmrs	ip, s15	@ int
	ftosizs	s15, s22
	fmrs	lr, s15	@ int
	ftosizs	s15, s21
	fcvtds	d6, s18
	str	ip, [sp, #4]
	fmrs	ip, s15	@ int
	fcvtds	d7, s20
	fstd	d6, [sp, #24]
	str	lr, [sp, #8]
	fstd	d7, [sp, #16]
	fcvtds	d7, s17
	fstd	d7, [sp, #40]
	str	ip, [sp, #12]
	bl	_ZN7_JNIEnv14CallVoidMethodEP8_jobjectP10_jmethodIDz(PLT)
	ldr	r0, [r4]
	cmp	r0, #0
	beq	.L494
	ldr	r1, [r4, #4]
.L496:
	cmp	r1, #0
	beq	.L494
	ldr	r3, [r4, #8]
	cmp	r3, #0
	beq	.L498
	ldr	r3, [r0]
	ldr	r3, [r3, #124]
	blx	r3
	ldr	r2, .L521+8
	ldr	r3, .L521+12
.LPIC107:
	add	r2, pc, r2
.LPIC108:
	add	r3, pc, r3
	mov	r1, r0
	ldr	r0, [r4]
	ldr	ip, [r0]
	ldr	ip, [ip, #132]
	blx	ip
	fcvtds	d7, s17
	ftosizs	s13, s24
	mov	r2, r0
	ldmia	r4, {r0, r1, r3}
	fstd	d7, [sp, #24]
	fstd	d7, [sp, #40]
	ftosizs	s15, s23
	fsts	s13, [sp]	@ int
	fmrs	ip, s15	@ int
	ftosizs	s15, s22
	fmrs	lr, s15	@ int
	ftosizs	s15, s21
	fcvtds	d6, s19
	str	ip, [sp, #4]
	fmrs	ip, s15	@ int
	fcvtds	d7, s20
	fstd	d6, [sp, #32]
	str	lr, [sp, #8]
	fstd	d7, [sp, #16]
	fcvtds	d7, s16
	fstd	d7, [sp, #48]
	str	ip, [sp, #12]
	bl	_ZN7_JNIEnv14CallVoidMethodEP8_jobjectP10_jmethodIDz(PLT)
	ldr	r0, [r4]
	cmp	r0, #0
	beq	.L494
	ldr	r1, [r4, #4]
.L498:
	cmp	r1, #0
	beq	.L494
	ldr	r3, [r4, #8]
	cmp	r3, #0
	beq	.L500
	ldr	r3, [r0]
	ldr	r3, [r3, #124]
	blx	r3
	ldr	r2, .L521+16
	ldr	r3, .L521+20
.LPIC109:
	add	r2, pc, r2
.LPIC110:
	add	r3, pc, r3
	mov	r1, r0
	ldr	r0, [r4]
	ldr	ip, [r0]
	ldr	ip, [ip, #132]
	blx	ip
	fcvtds	d7, s16
	ftosizs	s13, s24
	fcvtds	d4, s17
	mov	r2, r0
	ldmia	r4, {r0, r1, r3}
	fstd	d7, [sp, #32]
	fstd	d7, [sp, #48]
	ftosizs	s15, s23
	fsts	s13, [sp]	@ int
	fstd	d4, [sp, #24]
	fmrs	ip, s15	@ int
	ftosizs	s15, s22
	fmrs	lr, s15	@ int
	ftosizs	s15, s21
	str	ip, [sp, #4]
	fmrs	ip, s15	@ int
	fcvtds	d7, s20
	str	lr, [sp, #8]
	fstd	d7, [sp, #16]
	fcvtds	d7, s18
	fstd	d7, [sp, #40]
	str	ip, [sp, #12]
	bl	_ZN7_JNIEnv14CallVoidMethodEP8_jobjectP10_jmethodIDz(PLT)
	ldr	r0, [r4]
	cmp	r0, #0
	beq	.L494
	ldr	r1, [r4, #4]
.L500:
	cmp	r1, #0
	beq	.L494
	ldr	r3, [r4, #8]
	cmp	r3, #0
	beq	.L494
	ldr	r3, [r0]
	ldr	r3, [r3, #124]
	blx	r3
	ldr	r2, .L521+24
	ldr	r3, .L521+28
.LPIC111:
	add	r2, pc, r2
.LPIC112:
	add	r3, pc, r3
	mov	r1, r0
	ldr	r0, [r4]
	ldr	ip, [r0]
	ldr	ip, [ip, #132]
	blx	ip
	fcvtds	d7, s18
	ftosizs	s13, s24
	fcvtds	d5, s16
	mov	r2, r0
	ldmia	r4, {r0, r1, r3}
	fstd	d7, [sp, #24]
	fstd	d7, [sp, #40]
	ftosizs	s15, s23
	fsts	s13, [sp]	@ int
	fstd	d5, [sp, #32]
	fmrs	ip, s15	@ int
	ftosizs	s15, s22
	fmrs	lr, s15	@ int
	ftosizs	s15, s21
	fcvtds	d6, s20
	fsts	s15, [sp, #12]	@ int
	str	ip, [sp, #4]
	fcvtds	d7, s19
	fstd	d6, [sp, #16]
	str	lr, [sp, #8]
	fstd	d7, [sp, #48]
	bl	_ZN7_JNIEnv14CallVoidMethodEP8_jobjectP10_jmethodIDz(PLT)
.L494:
	add	sp, sp, #56
	@ sp needed
	fldmfdd	sp!, {d8-d12}
	ldmfd	sp!, {r4, lr}
	add	sp, sp, #16
	bx	lr
.L520:
	mov	r0, ip
	b	.L496
.L522:
	.align	2
.L521:
	.word	.LC75-(.LPIC105+8)
	.word	.LC76-(.LPIC106+8)
	.word	.LC75-(.LPIC107+8)
	.word	.LC76-(.LPIC108+8)
	.word	.LC75-(.LPIC109+8)
	.word	.LC76-(.LPIC110+8)
	.word	.LC75-(.LPIC111+8)
	.word	.LC76-(.LPIC112+8)
	.fnend
	.size	_ZN3ESP7DrawBoxE5Colorf4Rect, .-_ZN3ESP7DrawBoxE5Colorf4Rect
	.section	.text._Z8Distancei,"ax",%progbits
	.align	2
	.global	_Z8Distancei
	.hidden	_Z8Distancei
	.type	_Z8Distancei, %function
_Z8Distancei:
	.fnstart
	@ args = 0, pretend = 0, frame = 0
	@ frame_needed = 0, uses_anonymous_args = 0
	cmp	r1, #149
	mov	r3, #0
	str	r3, [r0]	@ float
	str	r3, [r0, #4]	@ float
	str	r3, [r0, #8]	@ float
	str	r3, [r0, #12]	@ float
	bxgt	lr
	cmp	r1, #144
	mov	r2, #0
	mov	ip, #1124073472
	movt	r2, 17279
	str	ip, [r0]	@ float
	str	ip, [r0, #8]	@ float
	str	r2, [r0, #12]	@ float
	bxgt	lr
	cmp	r1, #139
	str	ip, [r0, #4]	@ float
	bxgt	lr
	cmp	r1, #129
	str	r2, [r0]	@ float
	str	r3, [r0, #4]	@ float
	str	r2, [r0, #8]	@ float
	bxgt	lr
	cmp	r1, #119
	str	r3, [r0]	@ float
	str	r2, [r0, #4]	@ float
	bxgt	lr
	cmp	r1, #109
	str	r2, [r0]	@ float
	str	r3, [r0, #8]	@ float
	bxgt	lr
	cmp	r1, #99
	str	r3, [r0]	@ float
	str	r3, [r0, #4]	@ float
	bxgt	lr
	cmp	r1, #89
	str	r2, [r0]	@ float
	str	r2, [r0, #4]	@ float
	str	r2, [r0, #8]	@ float
	bxgt	lr
	cmp	r1, #84
	str	r3, [r0]	@ float
	bgt	.L546
	cmp	r1, #79
	str	r2, [r0, #4]	@ float
	str	r3, [r0, #8]	@ float
	bxgt	lr
	cmp	r1, #69
	mov	r3, #0
	movt	r3, 17279
	str	r3, [r0]	@ float
	bgt	.L547
	cmp	r1, #59
	mov	r2, #0
	movt	r2, 17164
	str	r2, [r0, #4]	@ float
	bxgt	lr
	cmp	r1, #49
	mov	ip, #1124073472
	mov	r2, #0
	str	ip, [r0, #4]	@ float
	str	r2, [r0]	@ float
	str	ip, [r0, #8]	@ float
	bxgt	lr
	cmp	r1, #39
	mov	ip, #0
	stmfd	sp!, {r4, lr}
	.save {r4, lr}
	mov	r4, #0
	mov	lr, #0
	movt	r4, 17036
	movt	lr, 17154
	movt	ip, 17204
	str	r4, [r0]	@ float
	str	lr, [r0, #4]	@ float
	str	ip, [r0, #8]	@ float
	ldmgtfd	sp!, {r4, pc}
	cmp	r1, #29
	mov	ip, #0
	mov	lr, #0
	movt	ip, 16800
	movt	lr, 17171
	str	r3, [r0]	@ float
	str	lr, [r0, #8]	@ float
	str	ip, [r0, #4]	@ float
	ldmgtfd	sp!, {r4, pc}
	cmp	r1, #19
	str	r3, [r0, #4]	@ float
	str	r2, [r0, #8]	@ float
	ldmgtfd	sp!, {r4, pc}
	cmp	r1, #9
	bgt	.L548
	cmp	r1, #4
	str	r3, [r0, #8]	@ float
	str	r3, [r0]	@ float
	strle	r2, [r0, #4]	@ float
	strle	r2, [r0, #8]	@ float
	ldmfd	sp!, {r4, pc}
.L547:
	mov	r3, #0
.L546:
	str	r3, [r0, #4]	@ float
	bx	lr
.L548:
	str	r2, [r0]	@ float
	ldmfd	sp!, {r4, pc}
	.fnend
	.size	_Z8Distancei, .-_Z8Distancei
	.section	.text._ZN6CanvasC2EP7_JNIEnviif,"axG",%progbits,_ZN6CanvasC5EP7_JNIEnviif,comdat
	.align	2
	.weak	_ZN6CanvasC2EP7_JNIEnviif
	.hidden	_ZN6CanvasC2EP7_JNIEnviif
	.type	_ZN6CanvasC2EP7_JNIEnviif, %function
_ZN6CanvasC2EP7_JNIEnviif:
	.fnstart
	@ args = 4, pretend = 0, frame = 0
	@ frame_needed = 0, uses_anonymous_args = 0
	stmfd	sp!, {r4, r5, r6, r7, r8, r9, r10, lr}
	.save {r4, r5, r6, r7, r8, r9, r10, lr}
	mov	r6, r1
	ldr	r1, [r1]
	mov	r5, r0
	ldr	ip, [sp, #32]	@ float
	mov	r10, #0
	str	r6, [r0, #48]
	str	r2, [r0, #24]
	mov	r0, r6
	str	r3, [r5, #28]
	ldr	r3, [r1, #24]
	ldr	r1, .L551
	str	ip, [r5, #32]	@ float
	strb	r10, [r5, #36]
.LPIC113:
	add	r1, pc, r1
	blx	r3
	ldr	ip, [r6]
	ldr	r2, .L551+4
	ldr	r3, .L551+8
.LPIC114:
	add	r2, pc, r2
	ldr	ip, [ip, #132]
.LPIC115:
	add	r3, pc, r3
	ldr	r7, .L551+12
	ldr	r9, .L551+16
.LPIC117:
	add	r7, pc, r7
.LPIC126:
	add	r9, pc, r9
	mov	r4, r0
	mov	r0, r6
	mov	r1, r4
	blx	ip
	ldr	ip, [r6]
	ldr	r2, .L551+20
	mov	r1, r4
	mov	r3, r7
	ldr	ip, [ip, #132]
.LPIC116:
	add	r2, pc, r2
	str	r0, [r5, #8]
	mov	r0, r6
	blx	ip
	ldr	ip, [r6]
	ldr	r2, .L551+24
	mov	r3, r7
	mov	r1, r4
	ldr	ip, [ip, #132]
.LPIC118:
	add	r2, pc, r2
	str	r0, [r5, #12]
	mov	r0, r6
	blx	ip
	ldr	ip, [r6]
	ldr	r2, .L551+28
	mov	r1, r4
	ldr	r3, .L551+32
	ldr	ip, [ip, #132]
.LPIC120:
	add	r2, pc, r2
.LPIC121:
	add	r3, pc, r3
	str	r0, [r5, #16]
	mov	r0, r6
	blx	ip
	ldr	r3, [r6]
	mov	r1, r4
	ldr	r3, [r3, #92]
	str	r0, [r5, #20]
	mov	r0, r6
	blx	r3
	mov	r0, #24
	bl	_Znwj(PLT)
	ldr	r4, [r5, #48]
	ldr	r1, .L551+36
	ldr	r3, [r4]
.LPIC122:
	add	r1, pc, r1
	ldr	r3, [r3, #24]
	mov	r7, r0
	mov	r0, r4
	str	r4, [r7, #16]
	blx	r3
	ldr	ip, [r4]
	ldr	r2, .L551+40
	ldr	r3, .L551+44
	ldr	ip, [ip, #132]
.LPIC123:
	add	r2, pc, r2
.LPIC124:
	add	r3, pc, r3
	mov	r8, r0
	mov	r0, r4
	mov	r1, r8
	blx	ip
	mov	r1, r8
	mov	r2, r0
	mov	r0, r4
	bl	_ZN7_JNIEnv9NewObjectEP7_jclassP10_jmethodIDz(PLT)
	ldr	r3, [r4]
	ldr	r3, [r3, #84]
	mov	r1, r0
	mov	r0, r4
	blx	r3
	ldr	ip, [r4]
	ldr	r2, .L551+48
	mov	r1, r8
	mov	r3, r9
	ldr	ip, [ip, #376]
.LPIC125:
	add	r2, pc, r2
	str	r0, [r7, #20]
	mov	r0, r4
	blx	ip
	ldr	ip, [r4]
	ldr	r2, .L551+52
	mov	r1, r8
	mov	r3, r9
	ldr	ip, [ip, #376]
.LPIC127:
	add	r2, pc, r2
	str	r0, [r7]
	mov	r0, r4
	blx	ip
	ldr	ip, [r4]
	ldr	r2, .L551+56
	mov	r1, r8
	mov	r3, r9
	ldr	ip, [ip, #376]
.LPIC129:
	add	r2, pc, r2
	str	r0, [r7, #4]
	mov	r0, r4
	blx	ip
	ldr	ip, [r4]
	ldr	r2, .L551+60
	mov	r3, r9
	mov	r1, r8
	ldr	ip, [ip, #376]
.LPIC131:
	add	r2, pc, r2
	str	r0, [r7, #8]
	mov	r0, r4
	blx	ip
	ldr	r3, [r4]
	mov	r1, r8
	ldr	r3, [r3, #92]
	str	r0, [r7, #12]
	mov	r0, r4
	blx	r3
	str	r7, [r5, #40]
	mov	r0, #12
	bl	_Znwj(PLT)
	ldr	r7, [r5, #48]
	ldr	r1, .L551+64
	ldr	r3, [r7]
.LPIC133:
	add	r1, pc, r1
	ldr	r3, [r3, #24]
	mov	r4, r0
	mov	r0, r7
	str	r7, [r4, #4]
	blx	r3
	ldr	r3, [r7]
	ldr	r2, .L551+68
	ldr	ip, [r3, #452]
.LPIC134:
	add	r2, pc, r2
	ldr	r3, .L551+72
.LPIC135:
	add	r3, pc, r3
	mov	r1, r0
	str	r0, [r4, #8]
	mov	r0, r7
	blx	ip
	ldr	r1, .L551+76
	mov	r2, r10
.LPIC136:
	add	r1, pc, r1
	str	r0, [r4]
	mov	r0, r4
	str	r4, [r5, #44]
	bl	_ZN8Typeface6createEPKci(PLT)
	ldr	r3, [r6]
	ldr	r3, [r3, #84]
	mov	r1, r0
	mov	r0, r6
	blx	r3
	str	r0, [r5, #4]
	mov	r0, r5
	ldmfd	sp!, {r4, r5, r6, r7, r8, r9, r10, pc}
.L552:
	.align	2
.L551:
	.word	.LC95-(.LPIC113+8)
	.word	.LC96-(.LPIC114+8)
	.word	.LC97-(.LPIC115+8)
	.word	.LC99-(.LPIC117+8)
	.word	.LC107-(.LPIC126+8)
	.word	.LC98-(.LPIC116+8)
	.word	.LC100-(.LPIC118+8)
	.word	.LC101-(.LPIC120+8)
	.word	.LC102-(.LPIC121+8)
	.word	.LC103-(.LPIC122+8)
	.word	.LC104-(.LPIC123+8)
	.word	.LC105-(.LPIC124+8)
	.word	.LC106-(.LPIC125+8)
	.word	.LC108-(.LPIC127+8)
	.word	.LC109-(.LPIC129+8)
	.word	.LC110-(.LPIC131+8)
	.word	.LC111-(.LPIC133+8)
	.word	.LC112-(.LPIC134+8)
	.word	.LC113-(.LPIC135+8)
	.word	.LC114-(.LPIC136+8)
	.fnend
	.size	_ZN6CanvasC2EP7_JNIEnviif, .-_ZN6CanvasC2EP7_JNIEnviif
	.weak	_ZN6CanvasC1EP7_JNIEnviif
	.hidden	_ZN6CanvasC1EP7_JNIEnviif
_ZN6CanvasC1EP7_JNIEnviif = _ZN6CanvasC2EP7_JNIEnviif
	.section	.text.Java_uk_lgl_modmenu_FloatingModMenuService_BrunoModsFeature,"ax",%progbits
	.align	2
	.global	Java_uk_lgl_modmenu_FloatingModMenuService_BrunoModsFeature
	.type	Java_uk_lgl_modmenu_FloatingModMenuService_BrunoModsFeature, %function
Java_uk_lgl_modmenu_FloatingModMenuService_BrunoModsFeature:
	.fnstart
	@ args = 0, pretend = 0, frame = 192
	@ frame_needed = 0, uses_anonymous_args = 0
	stmfd	sp!, {r4, r5, r6, r7, r8, lr}
	.save {r4, r5, r6, r7, r8, lr}
	.pad #192
	sub	sp, sp, #192
	ldr	r8, .L559
	mov	r4, r0
	ldr	r1, .L559+4
	mov	r2, #188
	mov	r0, sp
	sub	r6, sp, #4
.LPIC149:
	ldr	r8, [pc, r8]		@ tls_load_dot_plus_eight
.LPIC146:
	add	r1, pc, r1
	mov	r5, #0
	ldr	r3, [r8]
	str	r3, [sp, #188]
	bl	memcpy(PLT)
	ldr	r3, [r4]
	mov	r0, r4
	ldr	r1, .L559+8
	ldr	r3, [r3, #24]
.LPIC147:
	add	r1, pc, r1
	blx	r3
	ldr	r3, [r4]
	ldr	r1, .L559+12
	ldr	r3, [r3, #668]
.LPIC148:
	add	r1, pc, r1
	mov	r7, r0
	mov	r0, r4
	blx	r3
	ldr	ip, [r4]
	mov	r2, r7
	mov	r1, #47
	ldr	ip, [ip, #688]
	mov	r3, r0
	mov	r0, r4
	blx	ip
	mov	r7, r0
.L554:
	ldr	r3, [r4]
	mov	r0, r4
	ldr	r1, [r6, #4]!
	ldr	r3, [r3, #668]
	blx	r3
	ldr	ip, [r4]
	mov	r2, r5
	mov	r1, r7
	add	r5, r5, #1
	ldr	ip, [ip, #696]
	mov	r3, r0
	mov	r0, r4
	blx	ip
	cmp	r5, #47
	bne	.L554
	ldr	r2, [sp, #188]
	mov	r0, r7
	ldr	r3, [r8]
	cmp	r2, r3
	bne	.L558
	add	sp, sp, #192
	@ sp needed
	ldmfd	sp!, {r4, r5, r6, r7, r8, pc}
.L558:
	bl	__stack_chk_fail(PLT)
.L560:
	.align	2
.L559:
	.word	__stack_chk_guard(GOT_PREL)+(.-(.LPIC149+8))
	.word	.LANCHOR18-(.LPIC146+8)
	.word	.LC116-(.LPIC147+8)
	.word	.LC117-(.LPIC148+8)
	.fnend
	.size	Java_uk_lgl_modmenu_FloatingModMenuService_BrunoModsFeature, .-Java_uk_lgl_modmenu_FloatingModMenuService_BrunoModsFeature
	.section	.text.Java_uk_lgl_modmenu_FloatingModMenuService_BrunoModsChanges,"ax",%progbits
	.align	2
	.global	Java_uk_lgl_modmenu_FloatingModMenuService_BrunoModsChanges
	.type	Java_uk_lgl_modmenu_FloatingModMenuService_BrunoModsChanges, %function
Java_uk_lgl_modmenu_FloatingModMenuService_BrunoModsChanges:
	.fnstart
	@ args = 0, pretend = 0, frame = 0
	@ frame_needed = 0, uses_anonymous_args = 0
	stmfd	sp!, {r4, r5, r6, r7, r8, r9, r10, fp, lr}
	.save {r4, r5, r6, r7, r8, r9, r10, fp, lr}
	cmp	r2, #46
	addls	pc, pc, r2, asl #2
	b	.L561
.L564:
	b	.L563
	b	.L565
	b	.L566
	b	.L567
	b	.L568
	b	.L569
	b	.L570
	b	.L571
	b	.L572
	b	.L573
	b	.L574
	b	.L575
	b	.L576
	b	.L577
	b	.L578
	b	.L579
	b	.L580
	b	.L581
	b	.L582
	b	.L583
	b	.L584
	b	.L585
	b	.L586
	b	.L587
	b	.L588
	b	.L589
	b	.L590
	b	.L591
	b	.L592
	b	.L593
	b	.L594
	b	.L595
	b	.L596
	b	.L597
	b	.L598
	b	.L599
	b	.L600
	b	.L601
	b	.L602
	b	.L603
	b	.L604
	b	.L605
	b	.L606
	b	.L607
	b	.L608
	b	.L609
	b	.L610
	.p2align 1
.L561:
	ldmfd	sp!, {r4, r5, r6, r7, r8, r9, r10, fp, pc}
.L610:
	ldr	r2, .L710+4
.LPIC469:
	add	r2, pc, r2
	ldrb	r3, [r2]	@ zero_extendqisi2
	eor	r3, r3, #1
	strb	r3, [r2]
	cmp	r3, #0
	bne	.L662
	ldr	r0, .L710+8
	ldmfd	sp!, {r4, r5, r6, r7, r8, r9, r10, fp, lr}
.LPIC472:
	add	r0, pc, r0
	add	r0, r0, #36
	b	_ZN11MemoryPatch7RestoreEv(PLT)
.L609:
	ldr	r2, .L710+12
.LPIC465:
	add	r2, pc, r2
	ldrb	r3, [r2]	@ zero_extendqisi2
	eor	r3, r3, #1
	strb	r3, [r2]
	cmp	r3, #0
	beq	.L659
	ldr	r0, .L710+16
	ldmfd	sp!, {r4, r5, r6, r7, r8, r9, r10, fp, lr}
.LPIC467:
	add	r0, pc, r0
	b	_ZN11MemoryPatch6ModifyEv(PLT)
.L608:
	ldr	r2, .L710+20
.LPIC463:
	add	r2, pc, r2
	ldrb	r3, [r2]	@ zero_extendqisi2
	eor	r3, r3, #1
	strb	r3, [r2]
	ldmfd	sp!, {r4, r5, r6, r7, r8, r9, r10, fp, pc}
.L607:
	ldr	r2, .L710+24
.LPIC461:
	add	r2, pc, r2
	ldrb	r3, [r2]	@ zero_extendqisi2
	eor	r3, r3, #1
	strb	r3, [r2]
	ldmfd	sp!, {r4, r5, r6, r7, r8, r9, r10, fp, pc}
.L606:
	ldr	r2, .L710+28
.LPIC457:
	add	r2, pc, r2
	ldrb	r3, [r2]	@ zero_extendqisi2
	eor	r3, r3, #1
	strb	r3, [r2]
	cmp	r3, #0
	beq	.L658
	ldr	r0, .L710+32
	ldmfd	sp!, {r4, r5, r6, r7, r8, r9, r10, fp, lr}
.LPIC459:
	add	r0, pc, r0
	add	r0, r0, #108
	b	_ZN11MemoryPatch6ModifyEv(PLT)
.L605:
	ldr	r2, .L710+36
.LPIC455:
	add	r2, pc, r2
	ldrb	r3, [r2]	@ zero_extendqisi2
	eor	r3, r3, #1
	strb	r3, [r2]
	ldmfd	sp!, {r4, r5, r6, r7, r8, r9, r10, fp, pc}
.L604:
	ldr	r2, .L710+40
	ldr	r1, .L710+44
.LPIC452:
	add	r2, pc, r2
.LPIC454:
	add	r1, pc, r1
	ldrb	r3, [r2]	@ zero_extendqisi2
	eor	r3, r3, #1
	strb	r3, [r2]
	strb	r3, [r1]
	ldmfd	sp!, {r4, r5, r6, r7, r8, r9, r10, fp, pc}
.L603:
	cmp	r3, #0
	beq	.L663
	cmp	r3, #1
	beq	.L664
	cmp	r3, #2
	beq	.L665
	cmp	r3, #3
	beq	.L666
	cmp	r3, #4
	beq	.L667
	cmp	r3, #5
	beq	.L668
	cmp	r3, #6
	beq	.L669
	cmp	r3, #7
	beq	.L670
	cmp	r3, #8
	beq	.L671
	cmp	r3, #9
	beq	.L672
	cmp	r3, #10
	beq	.L673
	cmp	r3, #11
	ldmnefd	sp!, {r4, r5, r6, r7, r8, r9, r10, fp, pc}
	ldr	r3, .L710+48
	mov	r2, #0
	movt	r2, 16824
.LPIC451:
	add	r3, pc, r3
	str	r2, [r3]	@ float
	ldmfd	sp!, {r4, r5, r6, r7, r8, r9, r10, fp, pc}
.L602:
	cmp	r3, #1
	bls	.L674
	cmp	r3, #2
	beq	.L675
	cmp	r3, #3
	beq	.L676
	cmp	r3, #4
	beq	.L677
	cmp	r3, #5
	beq	.L678
	cmp	r3, #6
	beq	.L679
	cmp	r3, #7
	beq	.L680
	cmp	r3, #8
	beq	.L681
	cmp	r3, #9
	beq	.L682
	cmp	r3, #10
	ldmnefd	sp!, {r4, r5, r6, r7, r8, r9, r10, fp, pc}
	ldr	r3, .L710+52
	mov	r2, #0
	movt	r2, 16672
.LPIC439:
	add	r3, pc, r3
	str	r2, [r3]	@ float
	ldmfd	sp!, {r4, r5, r6, r7, r8, r9, r10, fp, pc}
.L601:
	cmp	r3, #0
	beq	.L683
	cmp	r3, #1
	ldreq	r2, .L710+56
.LPIC429:
	addeq	r2, pc, r2
	streqb	r3, [r2]
	ldmfd	sp!, {r4, r5, r6, r7, r8, r9, r10, fp, pc}
.L600:
	cmp	r3, #0
	beq	.L684
	cmp	r3, #1
	beq	.L685
	cmp	r3, #2
	ldmnefd	sp!, {r4, r5, r6, r7, r8, r9, r10, fp, pc}
	ldr	r2, .L710+60
	mov	r0, #1
	ldr	r3, .L710+64
	mov	r1, #0
.LPIC426:
	add	r2, pc, r2
.LPIC427:
	add	r3, pc, r3
	strb	r0, [r2]
	strb	r1, [r3]
	ldmfd	sp!, {r4, r5, r6, r7, r8, r9, r10, fp, pc}
.L599:
	cmp	r3, #0
	beq	.L686
	cmp	r3, #1
	beq	.L687
	cmp	r3, #2
	beq	.L688
	cmp	r3, #3
	beq	.L689
	cmp	r3, #4
	beq	.L690
	cmp	r3, #5
	beq	.L691
	cmp	r3, #6
	beq	.L692
	cmp	r3, #7
	beq	.L693
	cmp	r3, #8
	beq	.L694
	cmp	r3, #9
	ldmnefd	sp!, {r4, r5, r6, r7, r8, r9, r10, fp, pc}
	ldr	r3, .L710+68
	mov	r1, #0
	mov	r2, #1124073472
	mov	r0, #0
.LPIC418:
	add	r3, pc, r3
	movt	r1, 17279
	str	r2, [r3]	@ float
	str	r2, [r3, #8]	@ float
	str	r0, [r3, #4]	@ float
	str	r1, [r3, #12]	@ float
	ldmfd	sp!, {r4, r5, r6, r7, r8, r9, r10, fp, pc}
.L598:
	cmp	r3, #0
	beq	.L695
	cmp	r3, #1
	beq	.L696
	cmp	r3, #2
	beq	.L697
	cmp	r3, #3
	beq	.L698
	cmp	r3, #4
	beq	.L699
	cmp	r3, #5
	beq	.L700
	cmp	r3, #6
	beq	.L701
	cmp	r3, #7
	beq	.L702
	cmp	r3, #8
	beq	.L703
	cmp	r3, #9
	ldmnefd	sp!, {r4, r5, r6, r7, r8, r9, r10, fp, pc}
	ldr	r1, .L710+72
	mov	r3, #0
	ldr	r2, .L710+76
	mov	fp, #0
.LPIC372:
	add	r1, pc, r1
	flds	s15, .L710
	ldr	r9, .L710+80
.LPIC368:
	add	r2, pc, r2
	strb	r3, [r1]
	mov	r10, #1124073472
	ldr	r8, .L710+84
.LPIC373:
	add	r9, pc, r9
	ldr	r7, .L710+88
	mov	r6, #1
	ldr	r5, .L710+92
.LPIC374:
	add	r8, pc, r8
	ldr	r4, .L710+96
.LPIC375:
	add	r7, pc, r7
	ldr	lr, .L710+100
.LPIC376:
	add	r5, pc, r5
	ldr	ip, .L710+104
.LPIC377:
	add	r4, pc, r4
	ldr	r0, .L710+108
.LPIC378:
	add	lr, pc, lr
	ldr	r1, .L710+112
.LPIC379:
	add	ip, pc, ip
.LPIC380:
	add	r0, pc, r0
	movt	fp, 17279
.LPIC381:
	add	r1, pc, r1
	str	r10, [r2]	@ float
	str	r10, [r2, #8]	@ float
	strb	r3, [r9]
	strb	r3, [r8]
	fsts	s15, [r2, #4]
	strb	r3, [r7]
	strb	r3, [r5]
	str	fp, [r2, #12]	@ float
	strb	r3, [r4]
	strb	r3, [lr]
	strb	r3, [ip]
	strb	r3, [r0]
	strb	r6, [r1]
	ldmfd	sp!, {r4, r5, r6, r7, r8, r9, r10, fp, pc}
.L597:
	cmp	r3, #0
	beq	.L704
	cmp	r3, #1
	beq	.L705
	cmp	r3, #2
	beq	.L706
	cmp	r3, #3
	beq	.L707
	cmp	r3, #4
	beq	.L708
	cmp	r3, #5
	beq	.L709
	cmp	r3, #6
	ldmnefd	sp!, {r4, r5, r6, r7, r8, r9, r10, fp, pc}
	ldr	r3, .L710+116
	mov	r2, #0
	movt	r2, 17279
	mov	r1, #0
.LPIC238:
	add	r3, pc, r3
	str	r2, [r3]	@ float
	str	r2, [r3, #8]	@ float
	str	r2, [r3, #12]	@ float
	str	r1, [r3, #4]	@ float
	ldmfd	sp!, {r4, r5, r6, r7, r8, r9, r10, fp, pc}
.L595:
	ldr	r2, .L710+120
.LPIC210:
	add	r2, pc, r2
	ldrb	r3, [r2]	@ zero_extendqisi2
	eor	r3, r3, #1
	strb	r3, [r2]
	ldmfd	sp!, {r4, r5, r6, r7, r8, r9, r10, fp, pc}
.L594:
	ldr	r2, .L710+124
.LPIC208:
	add	r2, pc, r2
	ldrb	r3, [r2]	@ zero_extendqisi2
	eor	r3, r3, #1
	strb	r3, [r2]
	ldmfd	sp!, {r4, r5, r6, r7, r8, r9, r10, fp, pc}
.L591:
	ldr	r2, .L710+128
.LPIC202:
	add	r2, pc, r2
	ldrb	r3, [r2]	@ zero_extendqisi2
	eor	r3, r3, #1
	strb	r3, [r2]
	ldmfd	sp!, {r4, r5, r6, r7, r8, r9, r10, fp, pc}
.L590:
	ldr	r2, .L710+132
.LPIC200:
	add	r2, pc, r2
	ldrb	r3, [r2]	@ zero_extendqisi2
	eor	r3, r3, #1
	strb	r3, [r2]
	ldmfd	sp!, {r4, r5, r6, r7, r8, r9, r10, fp, pc}
.L589:
	ldr	r2, .L710+136
.LPIC198:
	add	r2, pc, r2
	ldrb	r3, [r2]	@ zero_extendqisi2
	eor	r3, r3, #1
	strb	r3, [r2]
	ldmfd	sp!, {r4, r5, r6, r7, r8, r9, r10, fp, pc}
.L588:
	ldr	r2, .L710+140
.LPIC196:
	add	r2, pc, r2
	ldrb	r3, [r2]	@ zero_extendqisi2
	eor	r3, r3, #1
	strb	r3, [r2]
	ldmfd	sp!, {r4, r5, r6, r7, r8, r9, r10, fp, pc}
.L596:
	ldr	r2, .L710+144
.LPIC212:
	add	r2, pc, r2
	ldrb	r3, [r2]	@ zero_extendqisi2
	eor	r3, r3, #1
	strb	r3, [r2]
	ldmfd	sp!, {r4, r5, r6, r7, r8, r9, r10, fp, pc}
.L579:
	ldr	r2, .L710+148
.LPIC178:
	add	r2, pc, r2
	ldrb	r3, [r2]	@ zero_extendqisi2
	eor	r3, r3, #1
	strb	r3, [r2]
	ldmfd	sp!, {r4, r5, r6, r7, r8, r9, r10, fp, pc}
.L578:
	ldr	r2, .L710+152
.LPIC176:
	add	r2, pc, r2
	ldrb	r3, [r2]	@ zero_extendqisi2
	eor	r3, r3, #1
	strb	r3, [r2]
	ldmfd	sp!, {r4, r5, r6, r7, r8, r9, r10, fp, pc}
.L577:
	ldr	r2, .L710+156
.LPIC174:
	add	r2, pc, r2
	ldrb	r3, [r2]	@ zero_extendqisi2
	eor	r3, r3, #1
	strb	r3, [r2]
	ldmfd	sp!, {r4, r5, r6, r7, r8, r9, r10, fp, pc}
.L576:
	ldr	r2, .L710+160
.LPIC172:
	add	r2, pc, r2
	ldrb	r3, [r2]	@ zero_extendqisi2
	eor	r3, r3, #1
	strb	r3, [r2]
	ldmfd	sp!, {r4, r5, r6, r7, r8, r9, r10, fp, pc}
.L575:
	ldr	r2, .L710+164
.LPIC170:
	add	r2, pc, r2
	ldrb	r3, [r2]	@ zero_extendqisi2
	eor	r3, r3, #1
	strb	r3, [r2]
	ldmfd	sp!, {r4, r5, r6, r7, r8, r9, r10, fp, pc}
.L574:
	ldr	r2, .L710+168
.LPIC168:
	add	r2, pc, r2
	ldrb	r3, [r2]	@ zero_extendqisi2
	eor	r3, r3, #1
	strb	r3, [r2]
	ldmfd	sp!, {r4, r5, r6, r7, r8, r9, r10, fp, pc}
.L573:
	ldr	r2, .L710+172
.LPIC166:
	add	r2, pc, r2
	ldrb	r3, [r2]	@ zero_extendqisi2
	eor	r3, r3, #1
	strb	r3, [r2]
	ldmfd	sp!, {r4, r5, r6, r7, r8, r9, r10, fp, pc}
.L572:
	ldr	r2, .L710+176
.LPIC164:
	add	r2, pc, r2
	ldrb	r3, [r2]	@ zero_extendqisi2
	eor	r3, r3, #1
	strb	r3, [r2]
	ldmfd	sp!, {r4, r5, r6, r7, r8, r9, r10, fp, pc}
.L571:
	ldr	r2, .L710+180
.LPIC162:
	add	r2, pc, r2
	ldrb	r3, [r2]	@ zero_extendqisi2
	eor	r3, r3, #1
	strb	r3, [r2]
	ldmfd	sp!, {r4, r5, r6, r7, r8, r9, r10, fp, pc}
.L570:
	fmsr	s15, r3	@ int
	ldr	r3, .L710+184
	fsitos	s15, s15
.LPIC161:
	add	r3, pc, r3
	ftosizs	s15, s15
	fsts	s15, [r3]	@ int
	ldmfd	sp!, {r4, r5, r6, r7, r8, r9, r10, fp, pc}
.L569:
	cmp	r3, #0
	ldmlefd	sp!, {r4, r5, r6, r7, r8, r9, r10, fp, pc}
	fmsr	s15, r3	@ int
	ldr	r3, .L710+188
	fsitos	s15, s15
.LPIC160:
	add	r3, pc, r3
	ftosizs	s15, s15
	fsts	s15, [r3]	@ int
	ldmfd	sp!, {r4, r5, r6, r7, r8, r9, r10, fp, pc}
.L568:
	ldr	r2, .L710+192
.LPIC158:
	add	r2, pc, r2
	ldrb	r3, [r2]	@ zero_extendqisi2
	eor	r3, r3, #1
	strb	r3, [r2]
	ldmfd	sp!, {r4, r5, r6, r7, r8, r9, r10, fp, pc}
.L567:
	ldr	r2, .L710+196
.LPIC156:
	add	r2, pc, r2
	ldrb	r3, [r2]	@ zero_extendqisi2
	eor	r3, r3, #1
	strb	r3, [r2]
	ldmfd	sp!, {r4, r5, r6, r7, r8, r9, r10, fp, pc}
.L566:
	ldr	r2, .L710+200
.LPIC154:
	add	r2, pc, r2
	ldrb	r3, [r2]	@ zero_extendqisi2
	eor	r3, r3, #1
	strb	r3, [r2]
	ldmfd	sp!, {r4, r5, r6, r7, r8, r9, r10, fp, pc}
.L565:
	ldr	r2, .L710+204
.LPIC152:
	add	r2, pc, r2
	ldrb	r3, [r2]	@ zero_extendqisi2
	eor	r3, r3, #1
	strb	r3, [r2]
	ldmfd	sp!, {r4, r5, r6, r7, r8, r9, r10, fp, pc}
.L711:
	.align	2
.L710:
	.word	0
	.word	.LANCHOR76-(.LPIC469+8)
	.word	.LANCHOR72-(.LPIC472+8)
	.word	.LANCHOR75-(.LPIC465+8)
	.word	.LANCHOR72-(.LPIC467+8)
	.word	.LANCHOR74-(.LPIC463+8)
	.word	.LANCHOR73-(.LPIC461+8)
	.word	.LANCHOR71-(.LPIC457+8)
	.word	.LANCHOR72-(.LPIC459+8)
	.word	.LANCHOR8-(.LPIC455+8)
	.word	.LANCHOR70-(.LPIC452+8)
	.word	.LANCHOR13-(.LPIC454+8)
	.word	.LANCHOR69-(.LPIC451+8)
	.word	.LANCHOR68-(.LPIC439+8)
	.word	.LANCHOR67-(.LPIC429+8)
	.word	.LANCHOR66-(.LPIC426+8)
	.word	.LANCHOR65-(.LPIC427+8)
	.word	.LANCHOR64-(.LPIC418+8)
	.word	.LANCHOR54-(.LPIC372+8)
	.word	.LANCHOR53-(.LPIC368+8)
	.word	.LANCHOR55-(.LPIC373+8)
	.word	.LANCHOR56-(.LPIC374+8)
	.word	.LANCHOR57-(.LPIC375+8)
	.word	.LANCHOR58-(.LPIC376+8)
	.word	.LANCHOR59-(.LPIC377+8)
	.word	.LANCHOR60-(.LPIC378+8)
	.word	.LANCHOR61-(.LPIC379+8)
	.word	.LANCHOR62-(.LPIC380+8)
	.word	.LANCHOR63-(.LPIC381+8)
	.word	.LANCHOR52-(.LPIC238+8)
	.word	.LANCHOR50-(.LPIC210+8)
	.word	.LANCHOR49-(.LPIC208+8)
	.word	.LANCHOR46-(.LPIC202+8)
	.word	.LANCHOR45-(.LPIC200+8)
	.word	.LANCHOR44-(.LPIC198+8)
	.word	.LANCHOR43-(.LPIC196+8)
	.word	.LANCHOR51-(.LPIC212+8)
	.word	.LANCHOR34-(.LPIC178+8)
	.word	.LANCHOR33-(.LPIC176+8)
	.word	.LANCHOR32-(.LPIC174+8)
	.word	.LANCHOR31-(.LPIC172+8)
	.word	.LANCHOR30-(.LPIC170+8)
	.word	.LANCHOR29-(.LPIC168+8)
	.word	.LANCHOR28-(.LPIC166+8)
	.word	.LANCHOR27-(.LPIC164+8)
	.word	.LANCHOR26-(.LPIC162+8)
	.word	.LANCHOR25-(.LPIC161+8)
	.word	.LANCHOR24-(.LPIC160+8)
	.word	.LANCHOR23-(.LPIC158+8)
	.word	.LANCHOR22-(.LPIC156+8)
	.word	.LANCHOR21-(.LPIC154+8)
	.word	.LANCHOR20-(.LPIC152+8)
	.word	.LANCHOR19-(.LPIC150+8)
	.word	.LANCHOR42-(.LPIC194+8)
	.word	.LANCHOR41-(.LPIC192+8)
	.word	.LANCHOR40-(.LPIC190+8)
	.word	.LANCHOR39-(.LPIC188+8)
	.word	.LANCHOR38-(.LPIC186+8)
	.word	.LANCHOR37-(.LPIC184+8)
	.word	.LANCHOR36-(.LPIC182+8)
	.word	.LANCHOR35-(.LPIC180+8)
	.word	.LANCHOR48-(.LPIC206+8)
	.word	.LANCHOR47-(.LPIC204+8)
	.word	.LANCHOR68-(.LPIC430+8)
	.word	.LANCHOR72-(.LPIC468+8)
	.word	.LANCHOR72-(.LPIC460+8)
	.word	.LANCHOR65-(.LPIC422+8)
	.word	.LANCHOR66-(.LPIC423+8)
	.word	.LANCHOR53-(.LPIC242+8)
	.word	.LANCHOR54-(.LPIC246+8)
	.word	.LANCHOR55-(.LPIC247+8)
	.word	.LANCHOR56-(.LPIC248+8)
	.word	.LANCHOR57-(.LPIC249+8)
	.word	.LANCHOR58-(.LPIC250+8)
	.word	.LANCHOR59-(.LPIC251+8)
	.word	.LANCHOR60-(.LPIC252+8)
	.word	.LANCHOR61-(.LPIC253+8)
	.word	.LANCHOR62-(.LPIC254+8)
	.word	.LANCHOR63-(.LPIC255+8)
	.word	.LANCHOR52-(.LPIC214+8)
	.word	.LANCHOR69-(.LPIC440+8)
	.word	.LANCHOR72-(.LPIC471+8)
	.word	.LANCHOR67-(.LPIC428+8)
	.word	.LANCHOR64-(.LPIC382+8)
	.word	.LANCHOR64-(.LPIC386+8)
	.word	.LANCHOR69-(.LPIC441+8)
	.word	.LANCHOR65-(.LPIC424+8)
	.word	.LANCHOR66-(.LPIC425+8)
	.word	.LANCHOR53-(.LPIC256+8)
	.word	.LANCHOR54-(.LPIC260+8)
	.word	.LANCHOR56-(.LPIC262+8)
	.word	.LANCHOR57-(.LPIC263+8)
	.word	.LANCHOR58-(.LPIC264+8)
	.word	.LANCHOR59-(.LPIC265+8)
	.word	.LANCHOR60-(.LPIC266+8)
	.word	.LANCHOR61-(.LPIC267+8)
	.word	.LANCHOR62-(.LPIC268+8)
	.word	.LANCHOR63-(.LPIC269+8)
	.word	.LANCHOR55-(.LPIC261+8)
	.word	.LANCHOR52-(.LPIC218+8)
	.word	.LANCHOR52-(.LPIC222+8)
	.word	.LANCHOR68-(.LPIC431+8)
	.word	.LANCHOR69-(.LPIC442+8)
	.word	.LANCHOR64-(.LPIC390+8)
	.word	0
.L563:
	ldr	r2, .L710+208
.LPIC150:
	add	r2, pc, r2
	ldrb	r3, [r2]	@ zero_extendqisi2
	eor	r3, r3, #1
	strb	r3, [r2]
	ldmfd	sp!, {r4, r5, r6, r7, r8, r9, r10, fp, pc}
.L587:
	ldr	r2, .L710+212
.LPIC194:
	add	r2, pc, r2
	ldrb	r3, [r2]	@ zero_extendqisi2
	eor	r3, r3, #1
	strb	r3, [r2]
	ldmfd	sp!, {r4, r5, r6, r7, r8, r9, r10, fp, pc}
.L586:
	ldr	r2, .L710+216
.LPIC192:
	add	r2, pc, r2
	ldrb	r3, [r2]	@ zero_extendqisi2
	eor	r3, r3, #1
	strb	r3, [r2]
	ldmfd	sp!, {r4, r5, r6, r7, r8, r9, r10, fp, pc}
.L585:
	ldr	r2, .L710+220
.LPIC190:
	add	r2, pc, r2
	ldrb	r3, [r2]	@ zero_extendqisi2
	eor	r3, r3, #1
	strb	r3, [r2]
	ldmfd	sp!, {r4, r5, r6, r7, r8, r9, r10, fp, pc}
.L584:
	ldr	r2, .L710+224
.LPIC188:
	add	r2, pc, r2
	ldrb	r3, [r2]	@ zero_extendqisi2
	eor	r3, r3, #1
	strb	r3, [r2]
	ldmfd	sp!, {r4, r5, r6, r7, r8, r9, r10, fp, pc}
.L583:
	ldr	r2, .L710+228
.LPIC186:
	add	r2, pc, r2
	ldrb	r3, [r2]	@ zero_extendqisi2
	eor	r3, r3, #1
	strb	r3, [r2]
	ldmfd	sp!, {r4, r5, r6, r7, r8, r9, r10, fp, pc}
.L582:
	ldr	r2, .L710+232
.LPIC184:
	add	r2, pc, r2
	ldrb	r3, [r2]	@ zero_extendqisi2
	eor	r3, r3, #1
	strb	r3, [r2]
	ldmfd	sp!, {r4, r5, r6, r7, r8, r9, r10, fp, pc}
.L581:
	ldr	r2, .L710+236
.LPIC182:
	add	r2, pc, r2
	ldrb	r3, [r2]	@ zero_extendqisi2
	eor	r3, r3, #1
	strb	r3, [r2]
	ldmfd	sp!, {r4, r5, r6, r7, r8, r9, r10, fp, pc}
.L580:
	ldr	r2, .L710+240
.LPIC180:
	add	r2, pc, r2
	ldrb	r3, [r2]	@ zero_extendqisi2
	eor	r3, r3, #1
	strb	r3, [r2]
	ldmfd	sp!, {r4, r5, r6, r7, r8, r9, r10, fp, pc}
.L593:
	ldr	r2, .L710+244
.LPIC206:
	add	r2, pc, r2
	ldrb	r3, [r2]	@ zero_extendqisi2
	eor	r3, r3, #1
	strb	r3, [r2]
	ldmfd	sp!, {r4, r5, r6, r7, r8, r9, r10, fp, pc}
.L592:
	ldr	r2, .L710+248
.LPIC204:
	add	r2, pc, r2
	ldrb	r3, [r2]	@ zero_extendqisi2
	eor	r3, r3, #1
	strb	r3, [r2]
	ldmfd	sp!, {r4, r5, r6, r7, r8, r9, r10, fp, pc}
.L674:
	ldr	r3, .L710+252
	mov	r2, #1065353216
.LPIC430:
	add	r3, pc, r3
	str	r2, [r3]	@ float
	ldmfd	sp!, {r4, r5, r6, r7, r8, r9, r10, fp, pc}
.L659:
	ldr	r0, .L710+256
	ldmfd	sp!, {r4, r5, r6, r7, r8, r9, r10, fp, lr}
.LPIC468:
	add	r0, pc, r0
	b	_ZN11MemoryPatch7RestoreEv(PLT)
.L658:
	ldr	r0, .L710+260
	ldmfd	sp!, {r4, r5, r6, r7, r8, r9, r10, fp, lr}
.LPIC460:
	add	r0, pc, r0
	add	r0, r0, #108
	b	_ZN11MemoryPatch7RestoreEv(PLT)
.L684:
	ldr	r1, .L710+264
	ldr	r2, .L710+268
.LPIC422:
	add	r1, pc, r1
.LPIC423:
	add	r2, pc, r2
	strb	r3, [r1]
	strb	r3, [r2]
	ldmfd	sp!, {r4, r5, r6, r7, r8, r9, r10, fp, pc}
.L695:
	ldr	r2, .L710+272
	mov	r1, #0
	ldr	r10, .L710+276
	movt	r1, 17279
	ldr	r9, .L710+280
.LPIC242:
	add	r2, pc, r2
	ldr	r8, .L710+284
.LPIC246:
	add	r10, pc, r10
	ldr	r7, .L710+288
.LPIC247:
	add	r9, pc, r9
	ldr	r6, .L710+292
.LPIC248:
	add	r8, pc, r8
	ldr	r5, .L710+296
.LPIC249:
	add	r7, pc, r7
	ldr	r4, .L710+300
.LPIC250:
	add	r6, pc, r6
	ldr	lr, .L710+304
.LPIC251:
	add	r5, pc, r5
	ldr	ip, .L710+308
.LPIC252:
	add	r4, pc, r4
	ldr	r0, .L710+312
.LPIC253:
	add	lr, pc, lr
.LPIC254:
	add	ip, pc, ip
	mov	fp, #1
.LPIC255:
	add	r0, pc, r0
	str	r1, [r2]	@ float
	strb	fp, [r10]
	strb	r3, [r9]
	str	r1, [r2, #4]	@ float
	strb	r3, [r8]
	strb	r3, [r7]
	str	r1, [r2, #8]	@ float
	strb	r3, [r6]
	strb	r3, [r5]
	str	r1, [r2, #12]	@ float
	strb	r3, [r4]
	strb	r3, [lr]
	strb	r3, [ip]
	strb	r3, [r0]
	ldmfd	sp!, {r4, r5, r6, r7, r8, r9, r10, fp, pc}
.L704:
	ldr	r3, .L710+316
	mov	r2, #0
	mov	r1, #0
	movt	r2, 17279
.LPIC214:
	add	r3, pc, r3
	str	r1, [r3]	@ float
	str	r1, [r3, #4]	@ float
	str	r2, [r3, #8]	@ float
	str	r2, [r3, #12]	@ float
	ldmfd	sp!, {r4, r5, r6, r7, r8, r9, r10, fp, pc}
.L663:
	ldr	r3, .L710+320
	mov	r2, #0
	movt	r2, 16704
.LPIC440:
	add	r3, pc, r3
	str	r2, [r3]	@ float
	ldmfd	sp!, {r4, r5, r6, r7, r8, r9, r10, fp, pc}
.L662:
	ldr	r0, .L710+324
	ldmfd	sp!, {r4, r5, r6, r7, r8, r9, r10, fp, lr}
.LPIC471:
	add	r0, pc, r0
	add	r0, r0, #36
	b	_ZN11MemoryPatch6ModifyEv(PLT)
.L683:
	ldr	r2, .L710+328
.LPIC428:
	add	r2, pc, r2
	strb	r3, [r2]
	ldmfd	sp!, {r4, r5, r6, r7, r8, r9, r10, fp, pc}
.L686:
	ldr	r3, .L710+332
	mov	r2, #0
	movt	r2, 17279
.LPIC382:
	add	r3, pc, r3
	str	r2, [r3]	@ float
	str	r2, [r3, #4]	@ float
	str	r2, [r3, #8]	@ float
	str	r2, [r3, #12]	@ float
	ldmfd	sp!, {r4, r5, r6, r7, r8, r9, r10, fp, pc}
.L687:
	ldr	r3, .L710+336
	mov	r2, #0
	mov	r1, #0
	movt	r2, 17279
.LPIC386:
	add	r3, pc, r3
	str	r1, [r3]	@ float
	str	r1, [r3, #8]	@ float
	str	r2, [r3, #4]	@ float
	str	r2, [r3, #12]	@ float
	ldmfd	sp!, {r4, r5, r6, r7, r8, r9, r10, fp, pc}
.L664:
	ldr	r3, .L710+340
	mov	r2, #0
	movt	r2, 16720
.LPIC441:
	add	r3, pc, r3
	str	r2, [r3]	@ float
	ldmfd	sp!, {r4, r5, r6, r7, r8, r9, r10, fp, pc}
.L685:
	ldr	r1, .L710+344
	mov	r0, #0
	ldr	r2, .L710+348
.LPIC424:
	add	r1, pc, r1
.LPIC425:
	add	r2, pc, r2
	strb	r3, [r1]
	strb	r0, [r2]
	ldmfd	sp!, {r4, r5, r6, r7, r8, r9, r10, fp, pc}
.L696:
	flds	s15, .L710+416
	mov	r10, #0
	ldr	r1, .L710+352
	mov	r2, #0
	ldr	fp, .L710+356
	movt	r10, 17279
	ldr	r9, .L710+360
.LPIC256:
	add	r1, pc, r1
	ldr	r8, .L710+364
.LPIC260:
	add	fp, pc, fp
	ldr	r7, .L710+368
.LPIC262:
	add	r9, pc, r9
	ldr	r6, .L710+372
.LPIC263:
	add	r8, pc, r8
	ldr	r5, .L710+376
.LPIC264:
	add	r7, pc, r7
	ldr	r4, .L710+380
.LPIC265:
	add	r6, pc, r6
	ldr	lr, .L710+384
.LPIC266:
	add	r5, pc, r5
	ldr	ip, .L710+388
.LPIC267:
	add	r4, pc, r4
	ldr	r0, .L710+392
.LPIC268:
	add	lr, pc, lr
.LPIC269:
	add	ip, pc, ip
	fsts	s15, [r1]
.LPIC261:
	add	r0, pc, r0
	strb	r2, [fp]
	strb	r2, [r9]
	fsts	s15, [r1, #8]
	strb	r2, [r8]
	strb	r2, [r7]
	str	r10, [r1, #4]	@ float
	strb	r2, [r6]
	strb	r2, [r5]
	str	r10, [r1, #12]	@ float
	strb	r2, [r4]
	strb	r2, [lr]
	strb	r2, [ip]
	strb	r3, [r0]
	ldmfd	sp!, {r4, r5, r6, r7, r8, r9, r10, fp, pc}
.L705:
	ldr	r3, .L710+396
	mov	r2, #0
	mov	r1, #0
	movt	r2, 17279
.LPIC218:
	add	r3, pc, r3
	str	r1, [r3]	@ float
	str	r1, [r3, #8]	@ float
	str	r2, [r3, #4]	@ float
	str	r2, [r3, #12]	@ float
	ldmfd	sp!, {r4, r5, r6, r7, r8, r9, r10, fp, pc}
.L706:
	ldr	r3, .L710+400
	mov	r1, #0
	movt	r1, 17279
	mov	r2, #0
.LPIC222:
	add	r3, pc, r3
	str	r1, [r3]	@ float
	str	r1, [r3, #12]	@ float
	str	r2, [r3, #4]	@ float
	str	r2, [r3, #8]	@ float
	ldmfd	sp!, {r4, r5, r6, r7, r8, r9, r10, fp, pc}
.L675:
	ldr	r3, .L710+404
	mov	r2, #1073741824
.LPIC431:
	add	r3, pc, r3
	str	r2, [r3]	@ float
	ldmfd	sp!, {r4, r5, r6, r7, r8, r9, r10, fp, pc}
.L665:
	ldr	r3, .L710+408
	mov	r2, #0
	movt	r2, 16736
.LPIC442:
	add	r3, pc, r3
	str	r2, [r3]	@ float
	ldmfd	sp!, {r4, r5, r6, r7, r8, r9, r10, fp, pc}
.L688:
	ldr	r3, .L710+412
	mov	r2, #0
	mov	r1, #0
	movt	r2, 17279
.LPIC390:
	add	r3, pc, r3
	str	r1, [r3]	@ float
	str	r1, [r3, #4]	@ float
	str	r2, [r3, #8]	@ float
	str	r2, [r3, #12]	@ float
	ldmfd	sp!, {r4, r5, r6, r7, r8, r9, r10, fp, pc}
.L697:
	flds	s15, .L712
	mov	r10, #0
	ldr	r2, .L712+4
	mov	r3, #0
	ldr	fp, .L712+8
	movt	r10, 17279
	ldr	r9, .L712+12
.LPIC270:
	add	r2, pc, r2
	ldr	r8, .L712+16
.LPIC274:
	add	fp, pc, fp
	ldr	r7, .L712+20
.LPIC275:
	add	r9, pc, r9
	ldr	r5, .L712+24
.LPIC277:
	add	r8, pc, r8
	ldr	r4, .L712+28
.LPIC278:
	add	r7, pc, r7
	ldr	lr, .L712+32
.LPIC279:
	add	r5, pc, r5
	ldr	ip, .L712+36
.LPIC280:
	add	r4, pc, r4
	ldr	r0, .L712+40
.LPIC281:
	add	lr, pc, lr
	ldr	r1, .L712+44
.LPIC282:
	add	ip, pc, ip
.LPIC283:
	add	r0, pc, r0
	mov	r6, #1
.LPIC276:
	add	r1, pc, r1
	fsts	s15, [r2]
	strb	r3, [fp]
	strb	r3, [r9]
	fsts	s15, [r2, #4]
	strb	r3, [r8]
	strb	r3, [r7]
	str	r10, [r2, #8]	@ float
	strb	r3, [r5]
	strb	r3, [r4]
	str	r10, [r2, #12]	@ float
	strb	r3, [lr]
	strb	r3, [ip]
	strb	r3, [r0]
	strb	r6, [r1]
	ldmfd	sp!, {r4, r5, r6, r7, r8, r9, r10, fp, pc}
.L666:
	ldr	r3, .L712+48
	mov	r2, #0
	movt	r2, 16752
.LPIC443:
	add	r3, pc, r3
	str	r2, [r3]	@ float
	ldmfd	sp!, {r4, r5, r6, r7, r8, r9, r10, fp, pc}
.L707:
	ldr	r3, .L712+52
	mov	r2, #0
	movt	r2, 17279
.LPIC226:
	add	r3, pc, r3
	str	r2, [r3]	@ float
	str	r2, [r3, #4]	@ float
	str	r2, [r3, #8]	@ float
	str	r2, [r3, #12]	@ float
	ldmfd	sp!, {r4, r5, r6, r7, r8, r9, r10, fp, pc}
.L689:
	ldr	r3, .L712+56
	mov	r1, #0
	movt	r1, 17279
	mov	r2, #0
.LPIC394:
	add	r3, pc, r3
	str	r1, [r3]	@ float
	str	r1, [r3, #12]	@ float
	str	r2, [r3, #4]	@ float
	str	r2, [r3, #8]	@ float
	ldmfd	sp!, {r4, r5, r6, r7, r8, r9, r10, fp, pc}
.L698:
	flds	s15, .L712+364
	mov	r3, #0
	ldr	r2, .L712+60
	mov	r10, #0
	ldr	fp, .L712+64
	mov	r6, #1
	ldr	r9, .L712+68
.LPIC284:
	add	r2, pc, r2
	ldr	r8, .L712+72
.LPIC288:
	add	fp, pc, fp
	ldr	r7, .L712+76
.LPIC289:
	add	r9, pc, r9
	ldr	r5, .L712+80
.LPIC290:
	add	r8, pc, r8
	ldr	r4, .L712+84
.LPIC292:
	add	r7, pc, r7
	ldr	lr, .L712+88
.LPIC293:
	add	r5, pc, r5
	ldr	ip, .L712+92
.LPIC294:
	add	r4, pc, r4
	ldr	r0, .L712+96
.LPIC295:
	add	lr, pc, lr
	ldr	r1, .L712+100
.LPIC296:
	add	ip, pc, ip
.LPIC297:
	add	r0, pc, r0
	fsts	s15, [r2]
.LPIC291:
	add	r1, pc, r1
	strb	r3, [fp]
	strb	r3, [r9]
	fsts	s15, [r2, #12]
	strb	r3, [r8]
	strb	r3, [r7]
	str	r10, [r2, #4]	@ float
	strb	r3, [r5]
	strb	r3, [r4]
	str	r10, [r2, #8]	@ float
	strb	r3, [lr]
	strb	r3, [ip]
	strb	r3, [r0]
	strb	r6, [r1]
	ldmfd	sp!, {r4, r5, r6, r7, r8, r9, r10, fp, pc}
.L676:
	ldr	r3, .L712+104
	mov	r2, #0
	movt	r2, 16448
.LPIC432:
	add	r3, pc, r3
	str	r2, [r3]	@ float
	ldmfd	sp!, {r4, r5, r6, r7, r8, r9, r10, fp, pc}
.L677:
	ldr	r3, .L712+108
	mov	r2, #0
	movt	r2, 16512
.LPIC433:
	add	r3, pc, r3
	str	r2, [r3]	@ float
	ldmfd	sp!, {r4, r5, r6, r7, r8, r9, r10, fp, pc}
.L690:
	ldr	r3, .L712+112
	mov	r1, #0
	mov	r2, #0
	movt	r1, 17279
.LPIC398:
	add	r3, pc, r3
	str	r2, [r3]	@ float
	str	r2, [r3, #4]	@ float
	str	r2, [r3, #8]	@ float
	str	r1, [r3, #12]	@ float
	ldmfd	sp!, {r4, r5, r6, r7, r8, r9, r10, fp, pc}
.L708:
	ldr	r3, .L712+116
	mov	r2, #0
	movt	r2, 17279
	mov	r1, #0
.LPIC230:
	add	r3, pc, r3
	str	r2, [r3]	@ float
	str	r2, [r3, #4]	@ float
	str	r2, [r3, #12]	@ float
	str	r1, [r3, #8]	@ float
	ldmfd	sp!, {r4, r5, r6, r7, r8, r9, r10, fp, pc}
.L667:
	ldr	r3, .L712+120
	mov	r2, #0
	movt	r2, 16768
.LPIC444:
	add	r3, pc, r3
	str	r2, [r3]	@ float
	ldmfd	sp!, {r4, r5, r6, r7, r8, r9, r10, fp, pc}
.L699:
	ldr	r2, .L712+124
	mov	r3, #0
	ldr	fp, .L712+128
	mov	r7, #0
	flds	s15, .L712+364
.LPIC298:
	add	r2, pc, r2
	ldr	r10, .L712+132
.LPIC302:
	add	fp, pc, fp
	ldr	r9, .L712+136
	mov	r6, #1
	ldr	r8, .L712+140
.LPIC303:
	add	r10, pc, r10
	ldr	r5, .L712+144
.LPIC304:
	add	r9, pc, r9
	ldr	r4, .L712+148
.LPIC305:
	add	r8, pc, r8
	ldr	lr, .L712+152
.LPIC307:
	add	r5, pc, r5
	ldr	ip, .L712+156
.LPIC308:
	add	r4, pc, r4
	ldr	r0, .L712+160
.LPIC309:
	add	lr, pc, lr
	ldr	r1, .L712+164
.LPIC310:
	add	ip, pc, ip
.LPIC311:
	add	r0, pc, r0
	str	r7, [r2]	@ float
.LPIC306:
	add	r1, pc, r1
	strb	r3, [fp]
	strb	r3, [r10]
	str	r7, [r2, #4]	@ float
	strb	r3, [r9]
	strb	r3, [r8]
	str	r7, [r2, #8]	@ float
	strb	r3, [r5]
	strb	r3, [r4]
	fsts	s15, [r2, #12]
	strb	r3, [lr]
	strb	r3, [ip]
	strb	r3, [r0]
	strb	r6, [r1]
	ldmfd	sp!, {r4, r5, r6, r7, r8, r9, r10, fp, pc}
.L668:
	ldr	r3, .L712+168
	mov	r2, #0
	movt	r2, 16776
.LPIC445:
	add	r3, pc, r3
	str	r2, [r3]	@ float
	ldmfd	sp!, {r4, r5, r6, r7, r8, r9, r10, fp, pc}
.L713:
	.align	2
.L712:
	.word	0
	.word	.LANCHOR53-(.LPIC270+8)
	.word	.LANCHOR54-(.LPIC274+8)
	.word	.LANCHOR55-(.LPIC275+8)
	.word	.LANCHOR57-(.LPIC277+8)
	.word	.LANCHOR58-(.LPIC278+8)
	.word	.LANCHOR59-(.LPIC279+8)
	.word	.LANCHOR60-(.LPIC280+8)
	.word	.LANCHOR61-(.LPIC281+8)
	.word	.LANCHOR62-(.LPIC282+8)
	.word	.LANCHOR63-(.LPIC283+8)
	.word	.LANCHOR56-(.LPIC276+8)
	.word	.LANCHOR69-(.LPIC443+8)
	.word	.LANCHOR52-(.LPIC226+8)
	.word	.LANCHOR64-(.LPIC394+8)
	.word	.LANCHOR53-(.LPIC284+8)
	.word	.LANCHOR54-(.LPIC288+8)
	.word	.LANCHOR55-(.LPIC289+8)
	.word	.LANCHOR56-(.LPIC290+8)
	.word	.LANCHOR58-(.LPIC292+8)
	.word	.LANCHOR59-(.LPIC293+8)
	.word	.LANCHOR60-(.LPIC294+8)
	.word	.LANCHOR61-(.LPIC295+8)
	.word	.LANCHOR62-(.LPIC296+8)
	.word	.LANCHOR63-(.LPIC297+8)
	.word	.LANCHOR57-(.LPIC291+8)
	.word	.LANCHOR68-(.LPIC432+8)
	.word	.LANCHOR68-(.LPIC433+8)
	.word	.LANCHOR64-(.LPIC398+8)
	.word	.LANCHOR52-(.LPIC230+8)
	.word	.LANCHOR69-(.LPIC444+8)
	.word	.LANCHOR53-(.LPIC298+8)
	.word	.LANCHOR54-(.LPIC302+8)
	.word	.LANCHOR55-(.LPIC303+8)
	.word	.LANCHOR56-(.LPIC304+8)
	.word	.LANCHOR57-(.LPIC305+8)
	.word	.LANCHOR59-(.LPIC307+8)
	.word	.LANCHOR60-(.LPIC308+8)
	.word	.LANCHOR61-(.LPIC309+8)
	.word	.LANCHOR62-(.LPIC310+8)
	.word	.LANCHOR63-(.LPIC311+8)
	.word	.LANCHOR58-(.LPIC306+8)
	.word	.LANCHOR69-(.LPIC445+8)
	.word	.LANCHOR53-(.LPIC312+8)
	.word	.LANCHOR54-(.LPIC316+8)
	.word	.LANCHOR55-(.LPIC317+8)
	.word	.LANCHOR56-(.LPIC318+8)
	.word	.LANCHOR57-(.LPIC319+8)
	.word	.LANCHOR58-(.LPIC320+8)
	.word	.LANCHOR60-(.LPIC322+8)
	.word	.LANCHOR61-(.LPIC323+8)
	.word	.LANCHOR62-(.LPIC324+8)
	.word	.LANCHOR63-(.LPIC325+8)
	.word	.LANCHOR59-(.LPIC321+8)
	.word	.LANCHOR64-(.LPIC402+8)
	.word	.LANCHOR52-(.LPIC234+8)
	.word	.LANCHOR68-(.LPIC434+8)
	.word	.LANCHOR68-(.LPIC435+8)
	.word	.LANCHOR53-(.LPIC326+8)
	.word	.LANCHOR54-(.LPIC330+8)
	.word	.LANCHOR55-(.LPIC331+8)
	.word	.LANCHOR56-(.LPIC332+8)
	.word	.LANCHOR57-(.LPIC333+8)
	.word	.LANCHOR58-(.LPIC334+8)
	.word	.LANCHOR59-(.LPIC335+8)
	.word	.LANCHOR61-(.LPIC337+8)
	.word	.LANCHOR62-(.LPIC338+8)
	.word	.LANCHOR63-(.LPIC339+8)
	.word	.LANCHOR60-(.LPIC336+8)
	.word	.LANCHOR64-(.LPIC406+8)
	.word	.LANCHOR69-(.LPIC446+8)
	.word	.LANCHOR69-(.LPIC447+8)
	.word	.LANCHOR53-(.LPIC340+8)
	.word	.LANCHOR54-(.LPIC344+8)
	.word	.LANCHOR55-(.LPIC345+8)
	.word	.LANCHOR56-(.LPIC346+8)
	.word	.LANCHOR57-(.LPIC347+8)
	.word	.LANCHOR58-(.LPIC348+8)
	.word	.LANCHOR59-(.LPIC349+8)
	.word	.LANCHOR60-(.LPIC350+8)
	.word	.LANCHOR62-(.LPIC352+8)
	.word	.LANCHOR63-(.LPIC353+8)
	.word	.LANCHOR61-(.LPIC351+8)
	.word	.LANCHOR64-(.LPIC410+8)
	.word	.LANCHOR68-(.LPIC436+8)
	.word	.LANCHOR68-(.LPIC437+8)
	.word	.LANCHOR69-(.LPIC448+8)
	.word	.LANCHOR64-(.LPIC414+8)
	.word	.LANCHOR53-(.LPIC354+8)
	.word	.LANCHOR54-(.LPIC358+8)
	.word	0
	.word	1132396544
.L700:
	ldr	r2, .L712+172
	mov	r7, #0
	ldr	fp, .L712+176
	mov	r3, #0
	flds	s15, .L712+360
.LPIC312:
	add	r2, pc, r2
	ldr	r10, .L712+180
.LPIC316:
	add	fp, pc, fp
	ldr	r9, .L712+184
	movt	r7, 17279
	ldr	r8, .L712+188
.LPIC317:
	add	r10, pc, r10
	ldr	r5, .L712+192
.LPIC318:
	add	r9, pc, r9
	ldr	r4, .L712+196
.LPIC319:
	add	r8, pc, r8
	ldr	lr, .L712+200
.LPIC320:
	add	r5, pc, r5
	ldr	ip, .L712+204
.LPIC322:
	add	r4, pc, r4
	ldr	r0, .L712+208
.LPIC323:
	add	lr, pc, lr
	ldr	r1, .L712+212
.LPIC324:
	add	ip, pc, ip
.LPIC325:
	add	r0, pc, r0
	mov	r6, #1
.LPIC321:
	add	r1, pc, r1
	str	r7, [r2]	@ float
	strb	r3, [fp]
	strb	r3, [r10]
	str	r7, [r2, #4]	@ float
	strb	r3, [r9]
	strb	r3, [r8]
	str	r7, [r2, #12]	@ float
	strb	r3, [r5]
	strb	r3, [r4]
	fsts	s15, [r2, #8]
	strb	r3, [lr]
	strb	r3, [ip]
	strb	r3, [r0]
	strb	r6, [r1]
	ldmfd	sp!, {r4, r5, r6, r7, r8, r9, r10, fp, pc}
.L691:
	ldr	r3, .L712+216
	mov	r2, #0
	movt	r2, 17279
	mov	r1, #0
.LPIC402:
	add	r3, pc, r3
	str	r2, [r3]	@ float
	str	r2, [r3, #4]	@ float
	str	r2, [r3, #12]	@ float
	str	r1, [r3, #8]	@ float
	ldmfd	sp!, {r4, r5, r6, r7, r8, r9, r10, fp, pc}
.L709:
	ldr	r3, .L712+220
	mov	r2, #0
	movt	r2, 17279
	mov	r1, #0
.LPIC234:
	add	r3, pc, r3
	str	r1, [r3]	@ float
	str	r2, [r3, #4]	@ float
	str	r2, [r3, #8]	@ float
	str	r2, [r3, #12]	@ float
	ldmfd	sp!, {r4, r5, r6, r7, r8, r9, r10, fp, pc}
.L678:
	ldr	r3, .L712+224
	mov	r2, #0
	movt	r2, 16544
.LPIC434:
	add	r3, pc, r3
	str	r2, [r3]	@ float
	ldmfd	sp!, {r4, r5, r6, r7, r8, r9, r10, fp, pc}
.L679:
	ldr	r3, .L712+228
	mov	r2, #0
	movt	r2, 16576
.LPIC435:
	add	r3, pc, r3
	str	r2, [r3]	@ float
	ldmfd	sp!, {r4, r5, r6, r7, r8, r9, r10, fp, pc}
.L701:
	flds	s15, .L712+360
	mov	r4, #0
	ldr	r2, .L712+232
	mov	r3, #0
	ldr	fp, .L712+236
	movt	r4, 17279
	ldr	r10, .L712+240
.LPIC326:
	add	r2, pc, r2
	ldr	r9, .L712+244
.LPIC330:
	add	fp, pc, fp
	ldr	r8, .L712+248
.LPIC331:
	add	r10, pc, r10
	ldr	r7, .L712+252
.LPIC332:
	add	r9, pc, r9
	ldr	r5, .L712+256
.LPIC333:
	add	r8, pc, r8
	ldr	lr, .L712+260
.LPIC334:
	add	r7, pc, r7
	ldr	ip, .L712+264
.LPIC335:
	add	r5, pc, r5
	ldr	r0, .L712+268
.LPIC337:
	add	lr, pc, lr
	ldr	r1, .L712+272
.LPIC338:
	add	ip, pc, ip
.LPIC339:
	add	r0, pc, r0
	mov	r6, #1
.LPIC336:
	add	r1, pc, r1
	fsts	s15, [r2]
	strb	r3, [fp]
	strb	r3, [r10]
	str	r4, [r2, #4]	@ float
	strb	r3, [r9]
	strb	r3, [r8]
	str	r4, [r2, #8]	@ float
	strb	r3, [r7]
	strb	r3, [r5]
	str	r4, [r2, #12]	@ float
	strb	r3, [lr]
	strb	r3, [ip]
	strb	r3, [r0]
	strb	r6, [r1]
	ldmfd	sp!, {r4, r5, r6, r7, r8, r9, r10, fp, pc}
.L692:
	ldr	r3, .L712+276
	mov	r2, #0
	movt	r2, 17279
	mov	r1, #0
.LPIC406:
	add	r3, pc, r3
	str	r1, [r3]	@ float
	str	r2, [r3, #4]	@ float
	str	r2, [r3, #8]	@ float
	str	r2, [r3, #12]	@ float
	ldmfd	sp!, {r4, r5, r6, r7, r8, r9, r10, fp, pc}
.L669:
	ldr	r3, .L712+280
	mov	r2, #0
	movt	r2, 16784
.LPIC446:
	add	r3, pc, r3
	str	r2, [r3]	@ float
	ldmfd	sp!, {r4, r5, r6, r7, r8, r9, r10, fp, pc}
.L670:
	ldr	r3, .L712+284
	mov	r2, #0
	movt	r2, 16792
.LPIC447:
	add	r3, pc, r3
	str	r2, [r3]	@ float
	ldmfd	sp!, {r4, r5, r6, r7, r8, r9, r10, fp, pc}
.L702:
	ldr	r2, .L712+288
	mov	r7, #0
	ldr	fp, .L712+292
	mov	r3, #0
	flds	s15, .L712+360
.LPIC340:
	add	r2, pc, r2
	ldr	r10, .L712+296
.LPIC344:
	add	fp, pc, fp
	ldr	r9, .L712+300
	movt	r7, 17279
	ldr	r8, .L712+304
.LPIC345:
	add	r10, pc, r10
	ldr	r5, .L712+308
.LPIC346:
	add	r9, pc, r9
	ldr	r4, .L712+312
.LPIC347:
	add	r8, pc, r8
	ldr	lr, .L712+316
.LPIC348:
	add	r5, pc, r5
	ldr	ip, .L712+320
.LPIC349:
	add	r4, pc, r4
	ldr	r0, .L712+324
.LPIC350:
	add	lr, pc, lr
	ldr	r1, .L712+328
.LPIC352:
	add	ip, pc, ip
.LPIC353:
	add	r0, pc, r0
	mov	r6, #1
.LPIC351:
	add	r1, pc, r1
	str	r7, [r2]	@ float
	strb	r3, [fp]
	strb	r3, [r10]
	str	r7, [r2, #8]	@ float
	strb	r3, [r9]
	strb	r3, [r8]
	str	r7, [r2, #12]	@ float
	strb	r3, [r5]
	strb	r3, [r4]
	fsts	s15, [r2, #4]
	strb	r3, [lr]
	strb	r3, [ip]
	strb	r3, [r0]
	strb	r6, [r1]
	ldmfd	sp!, {r4, r5, r6, r7, r8, r9, r10, fp, pc}
.L693:
	ldr	r3, .L712+332
	mov	r2, #0
	movt	r2, 17279
	mov	r1, #0
.LPIC410:
	add	r3, pc, r3
	str	r2, [r3]	@ float
	str	r2, [r3, #8]	@ float
	str	r2, [r3, #12]	@ float
	str	r1, [r3, #4]	@ float
	ldmfd	sp!, {r4, r5, r6, r7, r8, r9, r10, fp, pc}
.L680:
	ldr	r3, .L712+336
	mov	r2, #0
	movt	r2, 16608
.LPIC436:
	add	r3, pc, r3
	str	r2, [r3]	@ float
	ldmfd	sp!, {r4, r5, r6, r7, r8, r9, r10, fp, pc}
.L681:
	ldr	r3, .L712+340
	mov	r2, #1090519040
.LPIC437:
	add	r3, pc, r3
	str	r2, [r3]	@ float
	ldmfd	sp!, {r4, r5, r6, r7, r8, r9, r10, fp, pc}
.L671:
	ldr	r3, .L712+344
	mov	r2, #0
	movt	r2, 16800
.LPIC448:
	add	r3, pc, r3
	str	r2, [r3]	@ float
	ldmfd	sp!, {r4, r5, r6, r7, r8, r9, r10, fp, pc}
.L694:
	ldr	r3, .L712+348
	mov	r1, #0
	mov	r2, #1124073472
	movt	r1, 17279
.LPIC414:
	add	r3, pc, r3
	str	r2, [r3]	@ float
	str	r2, [r3, #4]	@ float
	str	r2, [r3, #8]	@ float
	str	r1, [r3, #12]	@ float
	ldmfd	sp!, {r4, r5, r6, r7, r8, r9, r10, fp, pc}
.L703:
	ldr	r2, .L712+352
	mov	r3, #0
	ldr	fp, .L712+356
	mov	r7, #1124073472
	flds	s15, .L712+364
.LPIC354:
	add	r2, pc, r2
	ldr	r10, .L714
.LPIC358:
	add	fp, pc, fp
	ldr	r9, .L714+4
	mov	r6, #1
	ldr	r8, .L714+8
.LPIC359:
	add	r10, pc, r10
	ldr	r5, .L714+12
.LPIC360:
	add	r9, pc, r9
	ldr	r4, .L714+16
.LPIC361:
	add	r8, pc, r8
	ldr	lr, .L714+20
.LPIC362:
	add	r5, pc, r5
	ldr	ip, .L714+24
.LPIC363:
	add	r4, pc, r4
	ldr	r0, .L714+28
.LPIC364:
	add	lr, pc, lr
	ldr	r1, .L714+32
.LPIC365:
	add	ip, pc, ip
.LPIC367:
	add	r0, pc, r0
	str	r7, [r2]	@ float
.LPIC366:
	add	r1, pc, r1
	strb	r3, [fp]
	strb	r3, [r10]
	str	r7, [r2, #4]	@ float
	strb	r3, [r9]
	strb	r3, [r8]
	str	r7, [r2, #8]	@ float
	strb	r3, [r5]
	strb	r3, [r4]
	fsts	s15, [r2, #12]
	strb	r3, [lr]
	strb	r3, [ip]
	strb	r3, [r0]
	strb	r6, [r1]
	ldmfd	sp!, {r4, r5, r6, r7, r8, r9, r10, fp, pc}
.L672:
	ldr	r3, .L714+36
	mov	r2, #0
	movt	r2, 16808
.LPIC449:
	add	r3, pc, r3
	str	r2, [r3]	@ float
	ldmfd	sp!, {r4, r5, r6, r7, r8, r9, r10, fp, pc}
.L682:
	ldr	r3, .L714+40
	mov	r2, #0
	movt	r2, 16656
.LPIC438:
	add	r3, pc, r3
	str	r2, [r3]	@ float
	ldmfd	sp!, {r4, r5, r6, r7, r8, r9, r10, fp, pc}
.L673:
	ldr	r3, .L714+44
	mov	r2, #0
	movt	r2, 16816
.LPIC450:
	add	r3, pc, r3
	str	r2, [r3]	@ float
	ldmfd	sp!, {r4, r5, r6, r7, r8, r9, r10, fp, pc}
.L715:
	.align	2
.L714:
	.word	.LANCHOR55-(.LPIC359+8)
	.word	.LANCHOR56-(.LPIC360+8)
	.word	.LANCHOR57-(.LPIC361+8)
	.word	.LANCHOR58-(.LPIC362+8)
	.word	.LANCHOR59-(.LPIC363+8)
	.word	.LANCHOR60-(.LPIC364+8)
	.word	.LANCHOR61-(.LPIC365+8)
	.word	.LANCHOR63-(.LPIC367+8)
	.word	.LANCHOR62-(.LPIC366+8)
	.word	.LANCHOR69-(.LPIC449+8)
	.word	.LANCHOR68-(.LPIC438+8)
	.word	.LANCHOR69-(.LPIC450+8)
	.fnend
	.size	Java_uk_lgl_modmenu_FloatingModMenuService_BrunoModsChanges, .-Java_uk_lgl_modmenu_FloatingModMenuService_BrunoModsChanges
	.section	.text._Z15GetHeadPositionPv,"ax",%progbits
	.align	2
	.global	_Z15GetHeadPositionPv
	.hidden	_Z15GetHeadPositionPv
	.type	_Z15GetHeadPositionPv, %function
_Z15GetHeadPositionPv:
	.fnstart
	@ args = 0, pretend = 0, frame = 0
	@ frame_needed = 0, uses_anonymous_args = 0
	stmfd	sp!, {r3, r4, r5, lr}
	.save {r3, r4, r5, lr}
	mov	r4, r0
	movw	r0, #8404
	mov	r3, #0
	movt	r0, 671
	str	r3, [r4]	@ float
	str	r3, [r4, #4]	@ float
	str	r3, [r4, #8]	@ float
	ldr	r5, [r1, #456]
	bl	_Z13getRealOffsetm(PLT)
	mov	r1, r4
	mov	r3, r0
	mov	r0, r5
	blx	r3
	mov	r0, r4
	ldmfd	sp!, {r3, r4, r5, pc}
	.fnend
	.size	_Z15GetHeadPositionPv, .-_Z15GetHeadPositionPv
	.section	.text._Z15GetHipsPositionPv,"ax",%progbits
	.align	2
	.global	_Z15GetHipsPositionPv
	.hidden	_Z15GetHipsPositionPv
	.type	_Z15GetHipsPositionPv, %function
_Z15GetHipsPositionPv:
	.fnstart
	@ args = 0, pretend = 0, frame = 0
	@ frame_needed = 0, uses_anonymous_args = 0
	stmfd	sp!, {r3, r4, r5, lr}
	.save {r3, r4, r5, lr}
	mov	r4, r0
	movw	r0, #8404
	mov	r3, #0
	movt	r0, 671
	str	r3, [r4]	@ float
	str	r3, [r4, #4]	@ float
	str	r3, [r4, #8]	@ float
	ldr	r5, [r1, #460]
	bl	_Z13getRealOffsetm(PLT)
	mov	r1, r4
	mov	r3, r0
	mov	r0, r5
	blx	r3
	mov	r0, r4
	ldmfd	sp!, {r3, r4, r5, pc}
	.fnend
	.size	_Z15GetHipsPositionPv, .-_Z15GetHipsPositionPv
	.section	.text._Z16GetToeTFPositionPv,"ax",%progbits
	.align	2
	.global	_Z16GetToeTFPositionPv
	.hidden	_Z16GetToeTFPositionPv
	.type	_Z16GetToeTFPositionPv, %function
_Z16GetToeTFPositionPv:
	.fnstart
	@ args = 0, pretend = 0, frame = 0
	@ frame_needed = 0, uses_anonymous_args = 0
	stmfd	sp!, {r3, r4, r5, lr}
	.save {r3, r4, r5, lr}
	mov	r4, r0
	movw	r0, #8404
	mov	r3, #0
	movt	r0, 671
	str	r3, [r4]	@ float
	str	r3, [r4, #4]	@ float
	str	r3, [r4, #8]	@ float
	ldr	r5, [r1, #476]
	bl	_Z13getRealOffsetm(PLT)
	mov	r1, r4
	mov	r3, r0
	mov	r0, r5
	blx	r3
	mov	r0, r4
	ldmfd	sp!, {r3, r4, r5, pc}
	.fnend
	.size	_Z16GetToeTFPositionPv, .-_Z16GetToeTFPositionPv
	.section	.text._Z15GetShoEPositionPv,"ax",%progbits
	.align	2
	.global	_Z15GetShoEPositionPv
	.hidden	_Z15GetShoEPositionPv
	.type	_Z15GetShoEPositionPv, %function
_Z15GetShoEPositionPv:
	.fnstart
	@ args = 0, pretend = 0, frame = 0
	@ frame_needed = 0, uses_anonymous_args = 0
	stmfd	sp!, {r3, r4, r5, lr}
	.save {r3, r4, r5, lr}
	mov	r4, r0
	movw	r0, #8404
	mov	r3, #0
	movt	r0, 671
	str	r3, [r4]	@ float
	str	r3, [r4, #4]	@ float
	str	r3, [r4, #8]	@ float
	ldr	r5, [r1, #508]
	bl	_Z13getRealOffsetm(PLT)
	mov	r1, r4
	mov	r3, r0
	mov	r0, r5
	blx	r3
	mov	r0, r4
	ldmfd	sp!, {r3, r4, r5, pc}
	.fnend
	.size	_Z15GetShoEPositionPv, .-_Z15GetShoEPositionPv
	.section	.text._Z15GetShoDPositionPv,"ax",%progbits
	.align	2
	.global	_Z15GetShoDPositionPv
	.hidden	_Z15GetShoDPositionPv
	.type	_Z15GetShoDPositionPv, %function
_Z15GetShoDPositionPv:
	.fnstart
	@ args = 0, pretend = 0, frame = 0
	@ frame_needed = 0, uses_anonymous_args = 0
	stmfd	sp!, {r3, r4, r5, lr}
	.save {r3, r4, r5, lr}
	mov	r4, r0
	movw	r0, #8404
	mov	r3, #0
	movt	r0, 671
	str	r3, [r4]	@ float
	str	r3, [r4, #4]	@ float
	str	r3, [r4, #8]	@ float
	ldr	r5, [r1, #504]
	bl	_Z13getRealOffsetm(PLT)
	mov	r1, r4
	mov	r3, r0
	mov	r0, r5
	blx	r3
	mov	r0, r4
	ldmfd	sp!, {r3, r4, r5, pc}
	.fnend
	.size	_Z15GetShoDPositionPv, .-_Z15GetShoDPositionPv
	.section	.text._Z13ESP_BrunoModsP7_JNIEnvP7_jclassP8_jobjectiif,"ax",%progbits
	.align	2
	.global	_Z13ESP_BrunoModsP7_JNIEnvP7_jclassP8_jobjectiif
	.hidden	_Z13ESP_BrunoModsP7_JNIEnvP7_jclassP8_jobjectiif
	.type	_Z13ESP_BrunoModsP7_JNIEnvP7_jclassP8_jobjectiif, %function
_Z13ESP_BrunoModsP7_JNIEnvP7_jclassP8_jobjectiif:
	.fnstart
	@ args = 8, pretend = 0, frame = 152
	@ frame_needed = 0, uses_anonymous_args = 0
	stmfd	sp!, {r4, r5, r6, r7, r8, r9, r10, fp, lr}
	.save {r4, r5, r6, r7, r8, r9, r10, fp, lr}
	mov	r8, r0
	ldr	r4, .L844+28
	mov	r7, r2
	ldr	r5, .L844+32
	mov	r6, r3
	fstmfdd	sp!, {d8, d9, d10}
	.vsave {d8, d9, d10}
.LPIC474:
	add	r5, pc, r5
.LPIC509:
	ldr	r4, [pc, r4]		@ tls_load_dot_plus_eight
	ldr	r0, [r5]
	ldr	ip, [r4]
	.pad #164
	sub	sp, sp, #164
	cmp	r0, #0
	str	ip, [sp, #156]
	beq	.L832
.L727:
	ldr	r5, .L844+36
	mov	r1, #1
	bl	_ZN6Canvas11HighEndModeEb(PLT)
	mov	r1, r7
.LPIC476:
	add	r5, pc, r5
	ldr	r0, [r5]
	bl	_ZN6Canvas12UpdateCanvasEP8_jobject(PLT)
	movw	r1, #39322
	ldr	r0, [r5]
	movt	r1, 16153
	bl	_ZN6Canvas9scaleSizeEf(PLT)
	ldr	r3, .L844+40
.LPIC478:
	ldr	r7, [pc, r3]		@ tls_load_dot_plus_eight
	cmp	r7, #0
	beq	.L726
	movw	r0, #52948
	movt	r0, 284
	bl	_Z13getRealOffsetm(PLT)
	mov	r3, r0
	mov	r0, #0
	blx	r3
	mov	r5, r0
	bl	_ZL12Curent_Matchv(PLT)
	cmp	r5, #0
	mov	r8, r0
	beq	.L833
.L729:
	cmp	r5, #0
	cmpne	r8, #0
	bne	.L834
.L726:
	ldr	r2, [sp, #156]
	ldr	r3, [r4]
	cmp	r2, r3
	bne	.L835
	add	sp, sp, #164
	@ sp needed
	fldmfdd	sp!, {d8-d10}
	ldmfd	sp!, {r4, r5, r6, r7, r8, r9, r10, fp, pc}
.L834:
	mov	r0, r5
	bl	_ZL18get_MyFollowCameraPv(PLT)
	mov	r9, r0
	mov	r0, r7
	bl	_ZL18get_MyFollowCameraPv(PLT)
	cmp	r0, #0
	cmpne	r9, #0
	beq	.L726
	ldr	r8, [r8, #68]
	bl	_ZL11Camera_mainv(PLT)
	cmp	r0, #0
	cmpne	r8, #0
	mov	r7, r0
	beq	.L726
	ldr	r2, [r8, #20]
	ldr	r3, [r2, #12]
	cmp	r3, #0
	ble	.L726
	ldr	r3, .L844+44
	mov	r9, #0
	ldr	fp, .L844+48
.LPIC506:
	add	r3, pc, r3
	str	r3, [sp, #12]
	ldr	r3, .L844+52
.LPIC479:
	add	fp, pc, fp
.LPIC507:
	add	r3, pc, r3
	str	r3, [sp, #20]
	ldr	r3, .L844+56
.LPIC508:
	add	r3, pc, r3
	str	r3, [sp, #28]
	ldr	r3, .L844+60
.LPIC503:
	add	r3, pc, r3
	str	r3, [sp, #16]
	ldr	r3, .L844+64
.LPIC504:
	add	r3, pc, r3
	str	r3, [sp, #24]
	b	.L764
.L763:
	ldr	r3, [r2, #12]
	add	r9, r9, #1
	cmp	r9, r3
	bge	.L726
.L764:
	add	r3, r2, r9, asl #2
	ldr	r10, [r3, #16]
	cmp	r10, #0
	cmpne	r10, r5
	beq	.L763
	mov	r0, r10
	bl	_ZL13get_isVisiblePv(PLT)
	cmp	r0, #0
	bne	.L836
.L831:
	ldr	r2, [r8, #20]
	b	.L763
.L832:
	mov	r0, #52
	bl	_Znwj(PLT)
	flds	s15, [sp, #228]
	mov	r1, r8
	mov	r2, r6
	ldr	r3, [sp, #224]
	fsts	s15, [sp]
	mov	r9, r0
	bl	_ZN6CanvasC1EP7_JNIEnviif(PLT)
	mov	r0, r9
	str	r9, [r5]
	b	.L727
.L836:
	mov	r0, r10
	bl	_ZL15get_isLocalTeamPv(PLT)
	cmp	r0, #0
	bne	.L831
	add	r0, sp, #84
	mov	r1, r10
	bl	_Z15GetHeadPositionPv(PLT)
	flds	s0, [sp, #84]
	add	r0, sp, #36
	mov	r1, r7
	flds	s1, [sp, #88]
	flds	s2, [sp, #92]
	bl	_ZL18WorldToScreenPointPv7Vector3(PLT)
	add	r0, sp, #96
	mov	r1, r10
	flds	s18, [sp, #40]
	bl	_Z16GetToeTFPositionPv(PLT)
	add	r0, sp, #48
	mov	r1, r7
	flds	s0, [sp, #96]
	flds	s1, [sp, #100]
	flds	s2, [sp, #104]
	bl	_ZL18WorldToScreenPointPv7Vector3(PLT)
	add	r0, sp, #108
	mov	r1, r10
	flds	s21, [sp, #48]
	flds	s17, [sp, #52]
	bl	_Z15GetShoEPositionPv(PLT)
	add	r0, sp, #60
	mov	r1, r7
	flds	s0, [sp, #108]
	flds	s1, [sp, #112]
	flds	s2, [sp, #116]
	bl	_ZL18WorldToScreenPointPv7Vector3(PLT)
	add	r0, sp, #120
	mov	r1, r10
	flds	s20, [sp, #60]
	bl	_Z15GetShoDPositionPv(PLT)
	add	r0, sp, #72
	mov	r1, r7
	flds	s0, [sp, #120]
	flds	s1, [sp, #124]
	flds	s2, [sp, #128]
	bl	_ZL18WorldToScreenPointPv7Vector3(PLT)
	flds	s15, [sp, #44]
	flds	s19, [sp, #72]
	fcmpezs	s15
	fmstat
	bmi	.L831
	flds	s15, [sp, #56]
	fcmpezs	s15
	fmstat
	bmi	.L831
	flds	s15, [sp, #68]
	fcmpezs	s15
	fmstat
	bmi	.L831
	flds	s15, [sp, #80]
	fcmpezs	s15
	fmstat
	bmi	.L831
	add	r0, sp, #132
	mov	r1, r5
	bl	_Z15GetHipsPositionPv(PLT)
	mov	r1, r10
	add	r0, sp, #144
	bl	_Z15GetHeadPositionPv(PLT)
	flds	s14, [sp, #136]
	flds	s15, [sp, #148]
	flds	s11, [sp, #132]
	fsubs	s15, s14, s15
	flds	s12, [sp, #144]
	flds	s13, [sp, #140]
	flds	s14, [sp, #152]
	fmuls	s15, s15, s15
	fsubs	s12, s11, s12
	fmacs	s15, s12, s12
	fsubs	s14, s13, s14
	fmacs	s15, s14, s14
	fsqrts	s14, s15
	fcmps	s14, s14
	fmstat
	bne	.L837
.L733:
	fconsts	s15, #36
	ldrb	r3, [fp]	@ zero_extendqisi2
	flds	s16, .L844+24
	fcmpes	s14, s15
	fmstat
	fcpysgt	s16, s15
	cmp	r3, #0
	beq	.L735
	ldr	r3, .L844+68
.LPIC480:
	add	r3, pc, r3
	ldrb	r3, [r3]	@ zero_extendqisi2
	cmp	r3, #0
	bne	.L838
.L737:
	ldr	r3, .L844+72
.LPIC485:
	add	r3, pc, r3
	ldrb	r3, [r3]	@ zero_extendqisi2
	cmp	r3, #0
	beq	.L740
	ldr	r3, .L844+76
.LPIC486:
	add	r3, pc, r3
	ldrb	r3, [r3]	@ zero_extendqisi2
	cmp	r3, #0
	bne	.L839
.L743:
	ldr	r3, .L844+80
.LPIC491:
	add	r3, pc, r3
	ldrb	r3, [r3]	@ zero_extendqisi2
	cmp	r3, #0
	beq	.L746
	ldr	r3, .L844+84
.LPIC492:
	add	r3, pc, r3
	ldrb	r3, [r3]	@ zero_extendqisi2
	cmp	r3, #0
	bne	.L840
.L749:
	ldr	r3, .L844+88
.LPIC497:
	add	r3, pc, r3
	ldrb	r3, [r3]	@ zero_extendqisi2
	cmp	r3, #0
	beq	.L752
	ldr	r3, .L844+92
.LPIC498:
	add	r3, pc, r3
	ldrb	r3, [r3]	@ zero_extendqisi2
	cmp	r3, #0
	bne	.L841
.L755:
	ldr	r3, [sp, #16]
	ldrb	r3, [r3]	@ zero_extendqisi2
	cmp	r3, #0
	beq	.L758
	ldr	r3, [sp, #24]
	ldrb	r3, [r3]	@ zero_extendqisi2
	cmp	r3, #0
	beq	.L831
	fmsr	s15, r6	@ int
	ldr	r3, .L844+96
	fcvtds	d5, s20
	movw	r2, #32896
	fldd	d2, .L844
.LPIC505:
	add	r3, pc, r3
	movt	r2, 23936
	str	r2, [sp, #4]
	ldr	r0, [r3]
	fldd	d3, .L844+8
	fsitod	d7, s15
	fldd	d6, .L844+16
	fcvtds	d4, s19
	fcpyd	d1, d7
	fnmacd	d7, d4, d3
	flds	s9, [sp, #224]	@ int
	fnmacd	d1, d5, d2
	fsubd	d7, d1, d7
	fmuld	d7, d7, d6
	fsitos	s9, s9
	fconsts	s12, #96
	fsubs	s11, s9, s18
	fsubs	s9, s9, s17
	fcvtsd	s14, d7
	fcpys	s15, s21
	fmrs	r3, s14
	fsubs	s13, s9, s11
	fnmacs	s15, s14, s12
	fnmacs	s11, s16, s12
	fmrs	r1, s15
	fadds	s13, s13, s16
	fmrs	r2, s11
	fsts	s13, [sp]
	bl	_ZN6Canvas7drawBoxEffffl(PLT)
.L758:
	ldr	r3, [sp, #12]
	ldrb	r3, [r3]	@ zero_extendqisi2
	cmp	r3, #0
	beq	.L831
	ldr	r3, [sp, #20]
	ldrb	r3, [r3]	@ zero_extendqisi2
	cmp	r3, #0
	beq	.L831
	fmsr	s15, r6	@ int
	ldr	r3, [sp, #28]
	fcvtds	d2, s20
	fldd	d4, .L844+8
	ldr	r0, [r3]
	mov	r3, #128
	movt	r3, 23936
	str	r3, [sp, #4]
	fldd	d5, .L844
	fsitod	d7, s15
	fldd	d6, .L844+16
	fcvtds	d3, s19
	fcpyd	d1, d7
	fnmacd	d7, d3, d4
	flds	s9, [sp, #224]	@ int
	fnmacd	d1, d2, d5
	fsubd	d7, d1, d7
	fmuld	d7, d7, d6
	fsitos	s9, s9
	fconsts	s12, #96
	fsubs	s18, s9, s18
	fsubs	s9, s9, s17
	fcvtsd	s14, d7
	fsubs	s13, s9, s18
	fmrs	r3, s14
	fnmacs	s21, s14, s12
	fnmacs	s18, s16, s12
	fmrs	r1, s21
	fadds	s13, s13, s16
	fmrs	r2, s18
	fsts	s13, [sp]
	bl	_ZN6Canvas7drawBoxEffffl(PLT)
	b	.L831
.L833:
	movw	r0, #58780
	movt	r0, 284
	bl	_Z13getRealOffsetm(PLT)
	mov	r3, r0
	mov	r0, r5
	blx	r3
	mov	r5, r0
	b	.L729
.L841:
	fmsr	s15, r6	@ int
	ldr	r3, .L844+100
	fcvtds	d5, s20
	movw	r2, #65535
	fldd	d2, .L844
.LPIC499:
	add	r3, pc, r3
	movt	r2, 23808
	str	r2, [sp, #4]
	ldr	r0, [r3]
	fldd	d3, .L844+8
	fsitod	d7, s15
	fldd	d6, .L844+16
	fcvtds	d4, s19
	fcpyd	d1, d7
	fnmacd	d7, d4, d3
	flds	s9, [sp, #224]	@ int
	fnmacd	d1, d5, d2
	fsubd	d7, d1, d7
	fmuld	d7, d7, d6
	fsitos	s9, s9
	fconsts	s12, #96
	fsubs	s11, s9, s18
	fsubs	s9, s9, s17
	fcvtsd	s14, d7
	fcpys	s15, s21
	fmrs	r3, s14
	fsubs	s13, s9, s11
	fnmacs	s15, s14, s12
	fnmacs	s11, s16, s12
	fmrs	r1, s15
	fadds	s13, s13, s16
	fmrs	r2, s11
	fsts	s13, [sp]
	bl	_ZN6Canvas7drawBoxEffffl(PLT)
.L752:
	ldr	r3, .L844+104
.LPIC500:
	add	r3, pc, r3
	ldrb	r3, [r3]	@ zero_extendqisi2
	cmp	r3, #0
	beq	.L755
	ldr	r3, .L844+108
.LPIC501:
	add	r3, pc, r3
	ldrb	r3, [r3]	@ zero_extendqisi2
	cmp	r3, #0
	beq	.L758
	fmsr	s15, r6	@ int
	ldr	r3, .L844+112
	fcvtds	d5, s20
	mov	r2, #255
	fldd	d2, .L844
.LPIC502:
	add	r3, pc, r3
	movt	r2, 24063
	str	r2, [sp, #4]
	ldr	r0, [r3]
	fldd	d3, .L844+8
	fsitod	d7, s15
	fldd	d6, .L844+16
	fcvtds	d4, s19
	fcpyd	d1, d7
	fnmacd	d7, d4, d3
	flds	s9, [sp, #224]	@ int
	fnmacd	d1, d5, d2
	fsubd	d7, d1, d7
	fmuld	d7, d7, d6
	fsitos	s9, s9
	fconsts	s12, #96
	fsubs	s11, s9, s18
	fsubs	s9, s9, s17
	fcvtsd	s14, d7
	fcpys	s15, s21
	fmrs	r3, s14
	fsubs	s13, s9, s11
	fnmacs	s15, s14, s12
	fnmacs	s11, s16, s12
	fmrs	r1, s15
	fadds	s13, s13, s16
	fmrs	r2, s11
	fsts	s13, [sp]
	bl	_ZN6Canvas7drawBoxEffffl(PLT)
	b	.L755
.L845:
	.align	3
.L844:
	.word	1030792151
	.word	1072682762
	.word	-515396076
	.word	1072698490
	.word	858993459
	.word	1072902963
	.word	0
	.word	__stack_chk_guard(GOT_PREL)+(.-(.LPIC509+8))
	.word	.LANCHOR77-(.LPIC474+8)
	.word	.LANCHOR77-(.LPIC476+8)
	.word	.LANCHOR78-(.LPIC478+8)
	.word	.LANCHOR63-(.LPIC506+8)
	.word	.LANCHOR54-(.LPIC479+8)
	.word	.LANCHOR67-(.LPIC507+8)
	.word	.LANCHOR77-(.LPIC508+8)
	.word	.LANCHOR62-(.LPIC503+8)
	.word	.LANCHOR67-(.LPIC504+8)
	.word	.LANCHOR67-(.LPIC480+8)
	.word	.LANCHOR56-(.LPIC485+8)
	.word	.LANCHOR67-(.LPIC486+8)
	.word	.LANCHOR58-(.LPIC491+8)
	.word	.LANCHOR67-(.LPIC492+8)
	.word	.LANCHOR60-(.LPIC497+8)
	.word	.LANCHOR67-(.LPIC498+8)
	.word	.LANCHOR77-(.LPIC505+8)
	.word	.LANCHOR77-(.LPIC499+8)
	.word	.LANCHOR61-(.LPIC500+8)
	.word	.LANCHOR67-(.LPIC501+8)
	.word	.LANCHOR77-(.LPIC502+8)
	.word	.LANCHOR77-(.LPIC481+8)
.L838:
	fmsr	s15, r6	@ int
	ldr	r3, .L844+116
	fcvtds	d5, s20
	mvn	r2, #-1577058304
	fldd	d2, .L846
.LPIC481:
	add	r3, pc, r3
	str	r2, [sp, #4]
	ldr	r0, [r3]
	fldd	d3, .L846+8
	fsitod	d7, s15
	fldd	d6, .L846+16
	fcvtds	d4, s19
	fcpyd	d1, d7
	fnmacd	d7, d4, d3
	flds	s9, [sp, #224]	@ int
	fnmacd	d1, d5, d2
	fsubd	d7, d1, d7
	fmuld	d7, d7, d6
	fsitos	s9, s9
	fconsts	s12, #96
	fsubs	s11, s9, s18
	fsubs	s9, s9, s17
	fcvtsd	s14, d7
	fcpys	s15, s21
	fmrs	r3, s14
	fsubs	s13, s9, s11
	fnmacs	s15, s14, s12
	fnmacs	s11, s16, s12
	fmrs	r1, s15
	fadds	s13, s13, s16
	fmrs	r2, s11
	fsts	s13, [sp]
	bl	_ZN6Canvas7drawBoxEffffl(PLT)
.L735:
	ldr	r3, .L846+24
.LPIC482:
	add	r3, pc, r3
	ldrb	r3, [r3]	@ zero_extendqisi2
	cmp	r3, #0
	beq	.L737
	ldr	r3, .L846+28
.LPIC483:
	add	r3, pc, r3
	ldrb	r3, [r3]	@ zero_extendqisi2
	cmp	r3, #0
	bne	.L842
.L740:
	ldr	r3, .L846+32
.LPIC488:
	add	r3, pc, r3
	ldrb	r3, [r3]	@ zero_extendqisi2
	cmp	r3, #0
	beq	.L743
	ldr	r3, .L846+36
.LPIC489:
	add	r3, pc, r3
	ldrb	r3, [r3]	@ zero_extendqisi2
	cmp	r3, #0
	bne	.L843
.L746:
	ldr	r3, .L846+40
.LPIC494:
	add	r3, pc, r3
	ldrb	r3, [r3]	@ zero_extendqisi2
	cmp	r3, #0
	beq	.L749
	ldr	r3, .L846+44
.LPIC495:
	add	r3, pc, r3
	ldrb	r3, [r3]	@ zero_extendqisi2
	cmp	r3, #0
	beq	.L752
	fmsr	s15, r6	@ int
	ldr	r3, .L846+48
	fcvtds	d5, s20
	mov	r2, #65280
	fldd	d2, .L846
.LPIC496:
	add	r3, pc, r3
	movt	r2, 24063
	str	r2, [sp, #4]
	ldr	r0, [r3]
	fldd	d3, .L846+8
	fsitod	d7, s15
	fldd	d6, .L846+16
	fcvtds	d4, s19
	fcpyd	d1, d7
	fnmacd	d7, d4, d3
	flds	s9, [sp, #224]	@ int
	fnmacd	d1, d5, d2
	fsubd	d7, d1, d7
	fmuld	d7, d7, d6
	fsitos	s9, s9
	fconsts	s12, #96
	fsubs	s11, s9, s18
	fsubs	s9, s9, s17
	fcvtsd	s14, d7
	fcpys	s15, s21
	fmrs	r3, s14
	fsubs	s13, s9, s11
	fnmacs	s15, s14, s12
	fnmacs	s11, s16, s12
	fmrs	r1, s15
	fadds	s13, s13, s16
	fmrs	r2, s11
	fsts	s13, [sp]
	bl	_ZN6Canvas7drawBoxEffffl(PLT)
	b	.L749
.L842:
	fmsr	s15, r6	@ int
	ldr	r3, .L846+52
	fcvtds	d5, s20
	mov	r2, #65280
	fldd	d2, .L846
.LPIC484:
	add	r3, pc, r3
	movt	r2, 23808
	str	r2, [sp, #4]
	ldr	r0, [r3]
	fldd	d3, .L846+8
	fsitod	d7, s15
	fldd	d6, .L846+16
	fcvtds	d4, s19
	fcpyd	d1, d7
	fnmacd	d7, d4, d3
	flds	s9, [sp, #224]	@ int
	fnmacd	d1, d5, d2
	fsubd	d7, d1, d7
	fmuld	d7, d7, d6
	fsitos	s9, s9
	fconsts	s12, #96
	fsubs	s11, s9, s18
	fsubs	s9, s9, s17
	fcvtsd	s14, d7
	fcpys	s15, s21
	fmrs	r3, s14
	fsubs	s13, s9, s11
	fnmacs	s15, s14, s12
	fnmacs	s11, s16, s12
	fmrs	r1, s15
	fadds	s13, s13, s16
	fmrs	r2, s11
	fsts	s13, [sp]
	bl	_ZN6Canvas7drawBoxEffffl(PLT)
	b	.L737
.L839:
	fmsr	s15, r6	@ int
	ldr	r3, .L846+56
	fcvtds	d5, s20
	mov	r2, #255
	fldd	d2, .L846
.LPIC487:
	add	r3, pc, r3
	movt	r2, 23808
	str	r2, [sp, #4]
	ldr	r0, [r3]
	fldd	d3, .L846+8
	fsitod	d7, s15
	fldd	d6, .L846+16
	fcvtds	d4, s19
	fcpyd	d1, d7
	fnmacd	d7, d4, d3
	flds	s9, [sp, #224]	@ int
	fnmacd	d1, d5, d2
	fsubd	d7, d1, d7
	fmuld	d7, d7, d6
	fsitos	s9, s9
	fconsts	s12, #96
	fsubs	s11, s9, s18
	fsubs	s9, s9, s17
	fcvtsd	s14, d7
	fcpys	s15, s21
	fmrs	r3, s14
	fsubs	s13, s9, s11
	fnmacs	s15, s14, s12
	fnmacs	s11, s16, s12
	fmrs	r1, s15
	fadds	s13, s13, s16
	fmrs	r2, s11
	fsts	s13, [sp]
	bl	_ZN6Canvas7drawBoxEffffl(PLT)
	b	.L740
.L843:
	fmsr	s15, r6	@ int
	ldr	r3, .L846+60
	fcvtds	d5, s20
	mov	r2, #0
	fldd	d2, .L846
.LPIC490:
	add	r3, pc, r3
	movt	r2, 24063
	str	r2, [sp, #4]
	ldr	r0, [r3]
	fldd	d3, .L846+8
	fsitod	d7, s15
	fldd	d6, .L846+16
	fcvtds	d4, s19
	fcpyd	d1, d7
	fnmacd	d7, d4, d3
	flds	s9, [sp, #224]	@ int
	fnmacd	d1, d5, d2
	fsubd	d7, d1, d7
	fmuld	d7, d7, d6
	fsitos	s9, s9
	fconsts	s12, #96
	fsubs	s11, s9, s18
	fsubs	s9, s9, s17
	fcvtsd	s14, d7
	fcpys	s15, s21
	fmrs	r3, s14
	fsubs	s13, s9, s11
	fnmacs	s15, s14, s12
	fnmacs	s11, s16, s12
	fmrs	r1, s15
	fadds	s13, s13, s16
	fmrs	r2, s11
	fsts	s13, [sp]
	bl	_ZN6Canvas7drawBoxEffffl(PLT)
	b	.L743
.L840:
	fmsr	s15, r6	@ int
	ldr	r3, .L846+64
	fcvtds	d5, s20
	mov	r2, #1560281088
	fldd	d2, .L846
.LPIC493:
	add	r3, pc, r3
	str	r2, [sp, #4]
	ldr	r0, [r3]
	fldd	d3, .L846+8
	fsitod	d7, s15
	fldd	d6, .L846+16
	fcvtds	d4, s19
	fcpyd	d1, d7
	fnmacd	d7, d4, d3
	flds	s9, [sp, #224]	@ int
	fnmacd	d1, d5, d2
	fsubd	d7, d1, d7
	fmuld	d7, d7, d6
	fsitos	s9, s9
	fconsts	s12, #96
	fsubs	s11, s9, s18
	fsubs	s9, s9, s17
	fcvtsd	s14, d7
	fcpys	s15, s21
	fmrs	r3, s14
	fsubs	s13, s9, s11
	fnmacs	s15, s14, s12
	fnmacs	s11, s16, s12
	fmrs	r1, s15
	fadds	s13, s13, s16
	fmrs	r2, s11
	fsts	s13, [sp]
	bl	_ZN6Canvas7drawBoxEffffl(PLT)
	b	.L746
.L835:
	bl	__stack_chk_fail(PLT)
.L837:
	fmrs	r0, s15
	bl	sqrtf(PLT)
	fmsr	s14, r0
	b	.L733
.L847:
	.align	3
.L846:
	.word	1030792151
	.word	1072682762
	.word	-515396076
	.word	1072698490
	.word	858993459
	.word	1072902963
	.word	.LANCHOR55-(.LPIC482+8)
	.word	.LANCHOR67-(.LPIC483+8)
	.word	.LANCHOR57-(.LPIC488+8)
	.word	.LANCHOR67-(.LPIC489+8)
	.word	.LANCHOR59-(.LPIC494+8)
	.word	.LANCHOR67-(.LPIC495+8)
	.word	.LANCHOR77-(.LPIC496+8)
	.word	.LANCHOR77-(.LPIC484+8)
	.word	.LANCHOR77-(.LPIC487+8)
	.word	.LANCHOR77-(.LPIC490+8)
	.word	.LANCHOR77-(.LPIC493+8)
	.fnend
	.size	_Z13ESP_BrunoModsP7_JNIEnvP7_jclassP8_jobjectiif, .-_Z13ESP_BrunoModsP7_JNIEnvP7_jclassP8_jobjectiif
	.section	.text._Z15GetHenEPositionPv,"ax",%progbits
	.align	2
	.global	_Z15GetHenEPositionPv
	.hidden	_Z15GetHenEPositionPv
	.type	_Z15GetHenEPositionPv, %function
_Z15GetHenEPositionPv:
	.fnstart
	@ args = 0, pretend = 0, frame = 0
	@ frame_needed = 0, uses_anonymous_args = 0
	stmfd	sp!, {r3, r4, r5, lr}
	.save {r3, r4, r5, lr}
	mov	r4, r0
	movw	r0, #8404
	mov	r3, #0
	movt	r0, 671
	str	r3, [r4]	@ float
	str	r3, [r4, #4]	@ float
	str	r3, [r4, #8]	@ float
	ldr	r5, [r1, #452]
	bl	_Z13getRealOffsetm(PLT)
	mov	r1, r4
	mov	r3, r0
	mov	r0, r5
	blx	r3
	mov	r0, r4
	ldmfd	sp!, {r3, r4, r5, pc}
	.fnend
	.size	_Z15GetHenEPositionPv, .-_Z15GetHenEPositionPv
	.section	.text._Z15GetHenDPositionPv,"ax",%progbits
	.align	2
	.global	_Z15GetHenDPositionPv
	.hidden	_Z15GetHenDPositionPv
	.type	_Z15GetHenDPositionPv, %function
_Z15GetHenDPositionPv:
	.fnstart
	@ args = 0, pretend = 0, frame = 0
	@ frame_needed = 0, uses_anonymous_args = 0
	stmfd	sp!, {r3, r4, r5, lr}
	.save {r3, r4, r5, lr}
	mov	r4, r0
	movw	r0, #8404
	mov	r3, #0
	movt	r0, 671
	str	r3, [r4]	@ float
	str	r3, [r4, #4]	@ float
	str	r3, [r4, #8]	@ float
	ldr	r5, [r1, #500]
	bl	_Z13getRealOffsetm(PLT)
	mov	r1, r4
	mov	r3, r0
	mov	r0, r5
	blx	r3
	mov	r0, r4
	ldmfd	sp!, {r3, r4, r5, pc}
	.fnend
	.size	_Z15GetHenDPositionPv, .-_Z15GetHenDPositionPv
	.section	.text._Z15GetToeEPositionPv,"ax",%progbits
	.align	2
	.global	_Z15GetToeEPositionPv
	.hidden	_Z15GetToeEPositionPv
	.type	_Z15GetToeEPositionPv, %function
_Z15GetToeEPositionPv:
	.fnstart
	@ args = 0, pretend = 0, frame = 0
	@ frame_needed = 0, uses_anonymous_args = 0
	stmfd	sp!, {r3, r4, r5, lr}
	.save {r3, r4, r5, lr}
	mov	r4, r0
	movw	r0, #8404
	mov	r3, #0
	movt	r0, 671
	str	r3, [r4]	@ float
	str	r3, [r4, #4]	@ float
	str	r3, [r4, #8]	@ float
	ldr	r5, [r1, #488]
	bl	_Z13getRealOffsetm(PLT)
	mov	r1, r4
	mov	r3, r0
	mov	r0, r5
	blx	r3
	mov	r0, r4
	ldmfd	sp!, {r3, r4, r5, pc}
	.fnend
	.size	_Z15GetToeEPositionPv, .-_Z15GetToeEPositionPv
	.section	.text._Z15GetToeDPositionPv,"ax",%progbits
	.align	2
	.global	_Z15GetToeDPositionPv
	.hidden	_Z15GetToeDPositionPv
	.type	_Z15GetToeDPositionPv, %function
_Z15GetToeDPositionPv:
	.fnstart
	@ args = 0, pretend = 0, frame = 0
	@ frame_needed = 0, uses_anonymous_args = 0
	stmfd	sp!, {r3, r4, r5, lr}
	.save {r3, r4, r5, lr}
	mov	r4, r0
	movw	r0, #8404
	mov	r3, #0
	movt	r0, 671
	str	r3, [r4]	@ float
	str	r3, [r4, #4]	@ float
	str	r3, [r4, #8]	@ float
	ldr	r5, [r1, #484]
	bl	_Z13getRealOffsetm(PLT)
	mov	r1, r4
	mov	r3, r0
	mov	r0, r5
	blx	r3
	mov	r0, r4
	ldmfd	sp!, {r3, r4, r5, pc}
	.fnend
	.size	_Z15GetToeDPositionPv, .-_Z15GetToeDPositionPv
	.section	.text._Z18GetVeiculoPositionPv,"ax",%progbits
	.align	2
	.global	_Z18GetVeiculoPositionPv
	.hidden	_Z18GetVeiculoPositionPv
	.type	_Z18GetVeiculoPositionPv, %function
_Z18GetVeiculoPositionPv:
	.fnstart
	@ args = 0, pretend = 0, frame = 0
	@ frame_needed = 0, uses_anonymous_args = 0
	stmfd	sp!, {r3, r4, r5, lr}
	.save {r3, r4, r5, lr}
	mov	r4, r0
	movw	r0, #8404
	mov	r3, #0
	movt	r0, 671
	str	r3, [r4]	@ float
	str	r3, [r4, #4]	@ float
	str	r3, [r4, #8]	@ float
	ldr	r5, [r1, #428]
	bl	_Z13getRealOffsetm(PLT)
	mov	r1, r4
	mov	r3, r0
	mov	r0, r5
	blx	r3
	mov	r0, r4
	ldmfd	sp!, {r3, r4, r5, pc}
	.fnend
	.size	_Z18GetVeiculoPositionPv, .-_Z18GetVeiculoPositionPv
	.section	.text._Z10CameraMainPv,"ax",%progbits
	.align	2
	.global	_Z10CameraMainPv
	.hidden	_Z10CameraMainPv
	.type	_Z10CameraMainPv, %function
_Z10CameraMainPv:
	.fnstart
	@ args = 0, pretend = 0, frame = 0
	@ frame_needed = 0, uses_anonymous_args = 0
	stmfd	sp!, {r3, r4, r5, lr}
	.save {r3, r4, r5, lr}
	mov	r4, r0
	movw	r0, #8404
	mov	r3, #0
	movt	r0, 671
	str	r3, [r4]	@ float
	str	r3, [r4, #4]	@ float
	str	r3, [r4, #8]	@ float
	ldr	r5, [r1, #92]
	bl	_Z13getRealOffsetm(PLT)
	mov	r1, r4
	mov	r3, r0
	mov	r0, r5
	blx	r3
	mov	r0, r4
	ldmfd	sp!, {r3, r4, r5, pc}
	.fnend
	.size	_Z10CameraMainPv, .-_Z10CameraMainPv
	.section	.text._Z12get_BrunoEspPv,"ax",%progbits
	.align	2
	.global	_Z12get_BrunoEspPv
	.hidden	_Z12get_BrunoEspPv
	.type	_Z12get_BrunoEspPv, %function
_Z12get_BrunoEspPv:
	.fnstart
	@ args = 0, pretend = 0, frame = 0
	@ frame_needed = 0, uses_anonymous_args = 0
	@ link register save eliminated.
	ldr	r3, .L861
.LPIC510:
	add	r3, pc, r3
	str	r0, [r3]
	bx	lr
.L862:
	.align	2
.L861:
	.word	.LANCHOR78-(.LPIC510+8)
	.fnend
	.size	_Z12get_BrunoEspPv, .-_Z12get_BrunoEspPv
	.section	.text._Z15GetClosestEnemyPv,"ax",%progbits
	.align	2
	.global	_Z15GetClosestEnemyPv
	.hidden	_Z15GetClosestEnemyPv
	.type	_Z15GetClosestEnemyPv, %function
_Z15GetClosestEnemyPv:
	.fnstart
	@ args = 0, pretend = 0, frame = 152
	@ frame_needed = 0, uses_anonymous_args = 0
	stmfd	sp!, {r4, r5, r6, r7, r8, r9, r10, fp, lr}
	.save {r4, r5, r6, r7, r8, r9, r10, fp, lr}
	subs	r6, r0, #0
	ldr	r8, .L943+4
	fstmfdd	sp!, {d8, d9, d10, d11, d12, d13, d14, d15}
	.vsave {d8, d9, d10, d11, d12, d13, d14, d15}
.LPIC522:
	ldr	r8, [pc, r8]		@ tls_load_dot_plus_eight
	.pad #172
	sub	sp, sp, #172
	ldr	r3, [r8]
	str	r3, [sp, #164]
	beq	.L866
	ldr	r2, .L943+8
	movw	r0, #42500
	ldr	r3, .L943+12
	movt	r0, 158
.LPIC512:
	add	r2, pc, r2
.LPIC513:
	add	r3, pc, r3
	ldr	r5, [r2]
	flds	s30, [r3]
	bl	_Z13getRealOffsetm(PLT)
	mov	r3, r0
	mov	r0, r6
	blx	r3
	subs	r7, r0, #0
	beq	.L866
	bl	_ZL14GetPlayerCaidoPv(PLT)
	cmp	r0, #0
	bne	.L866
	ldr	r6, [r6, #68]
	ldr	r3, [r6, #20]
	ldr	r2, [r3, #12]
	cmp	r2, #0
	ble	.L866
	ldr	r2, .L943+16
	fmsr	s15, r5	@ int
	flds	s28, .L943
	mov	r4, r0
.LPIC521:
	add	r2, pc, r2
	str	r2, [sp, #16]
	ldr	r2, .L943+20
	mov	r9, r0
	ldr	fp, .L943+24
	fsitos	s26, s15
.LPIC518:
	add	r2, pc, r2
	str	r2, [sp, #32]
	ldr	r2, .L943+28
.LPIC520:
	add	fp, pc, fp
	ldr	r10, .L943+32
.LPIC519:
	add	r2, pc, r2
	str	r2, [sp, #20]
	ldr	r2, .L943+36
.LPIC515:
	add	r10, pc, r10
	str	r8, [sp, #28]
.LPIC516:
	add	r2, pc, r2
	fcpys	s29, s28
	str	r2, [sp, #24]
	b	.L889
.L931:
	ldr	r3, [r6, #20]
.L893:
	ldr	r2, [r3, #12]
	add	r4, r4, #1
	cmp	r4, r2
	bge	.L934
.L889:
	add	r2, r3, r4, asl #2
	ldr	r5, [r2, #16]
	cmp	r5, #0
	beq	.L893
	mov	r0, r5
	bl	_ZL15get_isLocalTeamPv(PLT)
	cmp	r0, #0
	bne	.L931
	movw	r0, #64232
	movt	r0, 127
	bl	_Z13getRealOffsetm(PLT)
	mov	r3, r0
	mov	r0, r5
	blx	r3
	cmp	r0, #0
	bne	.L931
	mov	r0, r5
	bl	_ZL13get_isVisiblePv(PLT)
	cmp	r0, #0
	beq	.L931
	movw	r0, #30640
	movt	r0, 132
	bl	_Z13getRealOffsetm(PLT)
	mov	r3, r0
	mov	r0, r5
	blx	r3
	cmp	r0, #0
	beq	.L931
	add	r0, sp, #44
	mov	r1, r5
	bl	_Z15GetHeadPositionPv(PLT)
	add	r0, sp, #56
	mov	r1, r7
	flds	s25, [sp, #44]
	flds	s31, [sp, #48]
	flds	s20, [sp, #52]
	bl	_Z15GetHeadPositionPv(PLT)
	add	r0, sp, #68
	mov	r1, r7
	flds	s22, [sp, #56]
	flds	s21, [sp, #60]
	flds	s24, [sp, #64]
	bl	_Z15GetHipsPositionPv(PLT)
	add	r0, sp, #80
	mov	r1, r5
	flds	s16, [sp, #76]
	flds	s19, [sp, #68]
	flds	s18, [sp, #72]
	bl	_Z15GetHipsPositionPv(PLT)
	flds	s14, [sp, #84]
	flds	s15, [sp, #80]
	fsubs	s18, s14, s18
	flds	s17, [sp, #88]
	fmuls	s23, s18, s18
	fsubs	s19, s15, s19
	fmacs	s23, s19, s19
	fsubs	s17, s17, s16
	fmacs	s23, s17, s17
	fsqrts	s16, s23
	fcmps	s16, s16
	fcpys	s27, s16
	fmstat
	bne	.L935
.L891:
	movw	r0, #24112
	movt	r0, 129
	bl	_Z13getRealOffsetm(PLT)
	mov	r3, r0
	mov	r0, r7
	blx	r3
	ldrb	r2, [fp]	@ zero_extendqisi2
	cmp	r0, #0
	moveq	r2, #0
	andne	r2, r2, #1
	mov	r8, r0
	cmp	r2, #0
	beq	.L871
	ldr	r2, .L943+40
.LPIC514:
	add	r2, pc, r2
	ldrb	r2, [r2]	@ zero_extendqisi2
	cmp	r2, #0
	beq	.L870
	movw	r0, #33184
	fsts	s22, [sp, #116]
	movt	r0, 355
	fsts	s21, [sp, #120]
	fsts	s24, [sp, #124]
	fsts	s25, [sp, #128]
	fsts	s31, [sp, #132]
	fsts	s20, [sp, #136]
	bl	_Z13getRealOffsetm(PLT)
	add	r2, sp, #128
	add	r3, sp, #116
	mov	ip, r0
	ldmia	r2, {r0, r1, r2}
	stmia	sp, {r0, r1, r2}
	mov	r0, r8
	ldmia	r3, {r1, r2, r3}
	blx	ip
.L871:
	ldrb	r3, [r10]	@ zero_extendqisi2
	cmp	r3, #0
	bne	.L872
	ldr	r2, [sp, #24]
	fcmpes	s26, s29
	ldrb	r2, [r2]	@ zero_extendqisi2
	cmp	r2, #0
	beq	.L873
	fmstat
	ldr	r2, .L943+44
	fcpysmi	s29, s26
	movmi	r9, r5
.LPIC517:
	add	r2, pc, r2
	strb	r3, [r2]
.L874:
	ldr	r3, [sp, #20]
	ldrb	r3, [r3]	@ zero_extendqisi2
	cmp	r3, #0
	bne	.L895
.L881:
	ldr	r3, [r6, #20]
	fcmpes	s27, s28
	add	r4, r4, #1
	ldr	r2, [r3, #12]
	fmstat
	fcpysmi	s28, s27
	movmi	r9, r5
	cmp	r4, r2
	blt	.L889
.L934:
	ldr	r8, [sp, #28]
	mov	r0, r9
	b	.L865
.L866:
	mov	r0, #0
.L865:
	ldr	r2, [sp, #164]
	ldr	r3, [r8]
	cmp	r2, r3
	bne	.L936
	add	sp, sp, #172
	@ sp needed
	fldmfdd	sp!, {d8-d15}
	ldmfd	sp!, {r4, r5, r6, r7, r8, r9, r10, fp, pc}
.L872:
	ldr	r3, [sp, #16]
	ldrb	r3, [r3]	@ zero_extendqisi2
	cmp	r3, #0
	beq	.L894
	fcmpes	s26, s29
	fmstat
	bpl	.L874
	fcpys	s29, s26
	mov	r9, r5
.L895:
	bl	_ZL11Camera_mainv(PLT)
	bl	_ZL22Component_GetTransformPv(PLT)
	mov	r8, r0
	movw	r0, #11316
	movt	r0, 671
	bl	_Z13getRealOffsetm(PLT)
	mov	r1, r8
	mov	r3, r0
	add	r0, sp, #104
	blx	r3
	flds	s24, [sp, #104]
	fcmps	s16, s16
	flds	s21, [sp, #108]
	flds	s22, [sp, #112]
	fmstat
	fmuls	s24, s30, s24
	fmuls	s21, s30, s21
	fmuls	s22, s30, s22
	bne	.L937
.L882:
	fcmpzs	s16
	fmstat
	fdivsne	s18, s18, s16
	fldseq	s15, .L943+48
	fdivsne	s19, s19, s16
	fdivsne	s16, s17, s16
	fmulsne	s15, s18, s18
	fmacsne	s15, s19, s19
	fmacsne	s15, s16, s16
	fsqrts	s20, s15
	fcmps	s20, s20
	fcpyseq	s16, s15
	fcpyseq	s18, s15
	fcpyseq	s19, s15
	fmstat
	bne	.L938
.L884:
	fmuls	s14, s21, s21
	fmacs	s14, s24, s24
	fmacs	s14, s22, s22
	fsqrts	s15, s14
	fcmps	s15, s15
	fmstat
	bne	.L939
.L885:
	fmuls	s18, s18, s21
	mov	r3, #0
	mov	r2, #0
	movt	r3, 49136
	fmacs	s18, s19, s24
	fmacs	s18, s16, s22
	fmuls	s20, s20, s15
	fdivs	s15, s18, s20
	fcvtds	d7, s15
	fmrrd	r0, r1, d7
	bl	fmax(PLT)
	mov	r3, #0
	movt	r3, 16368
	mov	r2, #0
	fmdrr	d7, r0, r1
	fcvtsd	s15, d7
	fcvtds	d7, s15
	fmrrd	r0, r1, d7
	bl	fmin(PLT)
	fmdrr	d7, r0, r1
	fcvtsd	s15, d7
	fcvtds	d7, s15
	fmrrd	r0, r1, d7
	bl	acos(PLT)
	fmdrr	d7, r0, r1
	fcvtsd	s15, d7
	fcmpes	s30, s15
	fmstat
	fcmpes	s28, s27
	movge	r3, #1
	movlt	r3, #0
	fmstat
	andgt	r3, r3, #1
	movle	r3, #0
	cmp	r3, #0
	movne	r9, r5
	fcpysne	s28, s27
	b	.L931
.L944:
	.align	2
.L943:
	.word	1203982208
	.word	__stack_chk_guard(GOT_PREL)+(.-(.LPIC522+8))
	.word	.LANCHOR24-(.LPIC512+8)
	.word	.LANCHOR79-(.LPIC513+8)
	.word	.LANCHOR81-(.LPIC521+8)
	.word	.LANCHOR81-(.LPIC518+8)
	.word	.LANCHOR26-(.LPIC520+8)
	.word	.LANCHOR80-(.LPIC519+8)
	.word	.LANCHOR80-(.LPIC515+8)
	.word	.LANCHOR81-(.LPIC516+8)
	.word	.LANCHOR28-(.LPIC514+8)
	.word	.LANCHOR82-(.LPIC517+8)
	.word	0
	.word	1120403456
.L873:
	fmstat
	fcpysmi	s29, s26
	movmi	r9, r5
	b	.L881
.L870:
	movw	r0, #56612
	fsts	s22, [sp, #140]
	movt	r0, 351
	fsts	s21, [sp, #144]
	fsts	s24, [sp, #148]
	fsts	s25, [sp, #152]
	fsts	s31, [sp, #156]
	fsts	s20, [sp, #160]
	bl	_Z13getRealOffsetm(PLT)
	add	r2, sp, #152
	add	r3, sp, #140
	mov	ip, r0
	ldmia	r2, {r0, r1, r2}
	stmia	sp, {r0, r1, r2}
	mov	r0, r8
	ldmia	r3, {r1, r2, r3}
	blx	ip
	b	.L871
.L894:
	fsubs	s21, s31, s21
	fmuls	s14, s21, s21
	fsubs	s25, s25, s22
	fmacs	s14, s25, s25
	fsubs	s24, s20, s24
	fmacs	s14, s24, s24
	fsqrts	s15, s14
	fcmps	s15, s15
	fmstat
	bne	.L940
.L876:
	fcmpzs	s15
	fmstat
	fldseq	s24, .L943+48
	fdivsne	s25, s25, s15
	fdivsne	s24, s24, s15
	fdivsne	s21, s21, s15
	fcpyseq	s21, s24
	fcpyseq	s25, s24
	bl	_ZL11Camera_mainv(PLT)
	bl	_ZL22Component_GetTransformPv(PLT)
	mov	r8, r0
	movw	r0, #11316
	movt	r0, 671
	bl	_Z13getRealOffsetm(PLT)
	mov	r1, r8
	mov	r3, r0
	add	r0, sp, #92
	blx	r3
	fmuls	s15, s21, s21
	flds	s14, [sp, #100]
	flds	s31, [sp, #92]
	flds	s22, [sp, #96]
	fsts	s14, [sp, #36]
	fmacs	s15, s25, s25
	fmacs	s15, s24, s24
	fsqrts	s20, s15
	fcmps	s20, s20
	fmstat
	bne	.L941
.L878:
	fmuls	s14, s22, s22
	flds	s15, [sp, #36]
	fmacs	s14, s31, s31
	fmacs	s14, s15, s15
	fsqrts	s15, s14
	fcmps	s15, s15
	fmstat
	bne	.L942
.L879:
	fmuls	s21, s22, s21
	mov	r3, #0
	flds	s14, [sp, #36]
	mov	r2, #0
	movt	r3, 49136
	fmacs	s21, s31, s25
	fmacs	s21, s24, s14
	fmuls	s20, s20, s15
	fdivs	s15, s21, s20
	fcvtds	d7, s15
	fmrrd	r0, r1, d7
	bl	fmax(PLT)
	mov	r3, #0
	mov	r2, #0
	movt	r3, 16368
	fmdrr	d7, r0, r1
	fcvtsd	s15, d7
	fcvtds	d7, s15
	fmrrd	r0, r1, d7
	bl	fmin(PLT)
	fmdrr	d7, r0, r1
	fcvtsd	s15, d7
	fcvtds	d7, s15
	fmrrd	r0, r1, d7
	bl	acos(PLT)
	ldr	r3, [sp, #32]
	flds	s15, .L943+52
	ldrb	r2, [r3]	@ zero_extendqisi2
	fmdrr	d6, r0, r1
	fcvtsd	s14, d6
	fmuls	s15, s14, s15
	fcmpes	s26, s15
	fmstat
	fcmpes	s29, s15
	movge	r3, #1
	movlt	r3, #0
	fmstat
	andgt	r3, r3, #1
	movle	r3, #0
	cmp	r3, #0
	fcpysne	s29, s15
	movne	r9, r5
	cmp	r2, #0
	beq	.L881
	b	.L874
.L935:
	fmrs	r0, s23
	bl	sqrtf(PLT)
	fmsr	s27, r0
	b	.L891
.L936:
	bl	__stack_chk_fail(PLT)
.L942:
	fmrs	r0, s14
	bl	sqrtf(PLT)
	fmsr	s15, r0
	b	.L879
.L941:
	fmrs	r0, s15
	bl	sqrtf(PLT)
	fmsr	s20, r0
	b	.L878
.L940:
	fmrs	r0, s14
	bl	sqrtf(PLT)
	fmsr	s15, r0
	b	.L876
.L939:
	fmrs	r0, s14
	bl	sqrtf(PLT)
	fmsr	s15, r0
	b	.L885
.L938:
	fmrs	r0, s15
	bl	sqrtf(PLT)
	fmsr	s20, r0
	b	.L884
.L937:
	fmrs	r0, s23
	bl	sqrtf(PLT)
	fmsr	s16, r0
	b	.L882
	.fnend
	.size	_Z15GetClosestEnemyPv, .-_Z15GetClosestEnemyPv
	.section	.text._Z12EspAndAimbotPvS_,"ax",%progbits
	.align	2
	.global	_Z12EspAndAimbotPvS_
	.hidden	_Z12EspAndAimbotPvS_
	.type	_Z12EspAndAimbotPvS_, %function
_Z12EspAndAimbotPvS_:
	.fnstart
	@ args = 0, pretend = 0, frame = 0
	@ frame_needed = 0, uses_anonymous_args = 0
	stmfd	sp!, {r3, r4, r5, r6, r7, r8, r9, r10, fp, lr}
	.save {r3, r4, r5, r6, r7, r8, r9, r10, fp, lr}
	mov	r4, r1
	mov	r8, r0
	bl	_ZL12Curent_Matchv(PLT)
	cmp	r8, #0
	cmpne	r4, #0
	movne	r4, #1
	moveq	r4, #0
	cmp	r0, #0
	moveq	r4, #0
	andne	r4, r4, #1
	cmp	r4, #0
	ldmeqfd	sp!, {r3, r4, r5, r6, r7, r8, r9, r10, fp, pc}
	ldr	fp, [r0, #68]
	ldr	r3, [fp, #20]
	ldr	r2, [r3, #12]
	cmp	r2, #0
	ldmlefd	sp!, {r3, r4, r5, r6, r7, r8, r9, r10, fp, pc}
	ldr	r10, .L971
	mov	r4, #0
	ldr	r9, .L971+4
	mov	r7, r4
.LPIC523:
	add	r10, pc, r10
	mov	r6, r4
.LPIC524:
	add	r9, pc, r9
	b	.L951
.L950:
	ldr	r2, [r3, #12]
	add	r4, r4, #1
	cmp	r4, r2
	bge	.L968
.L951:
	add	r2, r3, r4, asl #2
	ldr	r5, [r2, #16]
	str	r6, [r10]
	cmp	r5, r8
	cmpne	r5, #0
	str	r7, [r9]
	beq	.L950
	mov	r0, r5
	bl	_ZL15get_isLocalTeamPv(PLT)
	cmp	r0, #0
	beq	.L969
.L966:
	ldr	r3, [fp, #20]
	add	r4, r4, #1
	ldr	r2, [r3, #12]
	cmp	r4, r2
	blt	.L951
.L968:
	ldmfd	sp!, {r3, r4, r5, r6, r7, r8, r9, r10, fp, pc}
.L969:
	mov	r0, r5
	bl	_ZL13get_isVisiblePv(PLT)
	cmp	r0, #0
	beq	.L966
	movw	r0, #30640
	movt	r0, 132
	bl	_Z13getRealOffsetm(PLT)
	mov	r3, r0
	mov	r0, r5
	blx	r3
	cmp	r0, #0
	beq	.L966
	ldrb	r3, [r5, #220]	@ zero_extendqisi2
	cmp	r3, #0
	addne	r7, r7, #1
	bne	.L966
.L970:
	ldr	r3, [fp, #20]
	add	r6, r6, #1
	b	.L950
.L972:
	.align	2
.L971:
	.word	.LANCHOR83-(.LPIC523+8)
	.word	.LANCHOR84-(.LPIC524+8)
	.fnend
	.size	_Z12EspAndAimbotPvS_, .-_Z12EspAndAimbotPvS_
	.section	.text._Z7_UpdatePv,"ax",%progbits
	.align	2
	.global	_Z7_UpdatePv
	.hidden	_Z7_UpdatePv
	.type	_Z7_UpdatePv, %function
_Z7_UpdatePv:
	.fnstart
	@ args = 0, pretend = 0, frame = 592
	@ frame_needed = 0, uses_anonymous_args = 0
	stmfd	sp!, {r4, r5, r6, r7, r8, r9, r10, fp, lr}
	.save {r4, r5, r6, r7, r8, r9, r10, fp, lr}
	mov	r5, r0
	ldr	r4, .L1113
	fstmfdd	sp!, {d8, d9}
	.vsave {d8, d9}
	ldr	r3, .L1113+4
.LPIC575:
	ldr	r4, [pc, r4]		@ tls_load_dot_plus_eight
.LPIC526:
	add	r3, pc, r3
	.pad #620
	sub	sp, sp, #620
	ldr	r2, [r4]
	ldr	r3, [r3]
	str	r2, [sp, #612]
	blx	r3
	cmp	r5, #0
	beq	.L975
	bl	_ZL12Curent_Matchv(PLT)
	mov	r6, r0
	bl	_ZL11Camera_mainv(PLT)
	ldr	r3, .L1113+8
.LPIC527:
	add	r3, pc, r3
	ldrb	r3, [r3]	@ zero_extendqisi2
	cmp	r3, #0
	mov	r9, r0
	beq	.L1086
.L976:
	cmp	r6, #0
	beq	.L975
	movw	r0, #42500
	movt	r0, 158
	bl	_Z13getRealOffsetm(PLT)
	mov	r3, r0
	mov	r0, r6
	blx	r3
	subs	r7, r0, #0
	beq	.L975
	mov	r0, r6
	bl	_Z15GetClosestEnemyPv(PLT)
	cmp	r0, #0
	cmpne	r9, #0
	mov	r6, r0
	bne	.L1087
.L975:
	ldr	r2, .L1113+12
	mov	r0, r5
	ldr	r3, .L1113+16
.LPIC570:
	add	r2, pc, r2
.LPIC571:
	add	r3, pc, r3
	str	r5, [r2]
	ldr	r3, [r3]
	blx	r3
	ldr	r2, [sp, #612]
	ldr	r3, [r4]
	cmp	r2, r3
	bne	.L1088
	add	sp, sp, #620
	@ sp needed
	fldmfdd	sp!, {d8-d9}
	ldmfd	sp!, {r4, r5, r6, r7, r8, r9, r10, fp, pc}
.L1086:
	ldr	r3, .L1113+20
.LPIC528:
	add	r3, pc, r3
	ldrb	r3, [r3]	@ zero_extendqisi2
	cmp	r3, #0
	bne	.L976
	ldr	r3, .L1113+24
.LPIC529:
	add	r3, pc, r3
	ldrb	r3, [r3]	@ zero_extendqisi2
	cmp	r3, #0
	bne	.L976
	ldr	r3, .L1113+28
.LPIC530:
	add	r3, pc, r3
	ldrb	r3, [r3]	@ zero_extendqisi2
	cmp	r3, #0
	bne	.L976
	b	.L975
.L1114:
	.align	2
.L1113:
	.word	__stack_chk_guard(GOT_PREL)+(.-(.LPIC575+8))
	.word	.LANCHOR85-(.LPIC526+8)
	.word	.LANCHOR19-(.LPIC527+8)
	.word	.LANCHOR78-(.LPIC570+8)
	.word	.LANCHOR85-(.LPIC571+8)
	.word	.LANCHOR20-(.LPIC528+8)
	.word	.LANCHOR21-(.LPIC529+8)
	.word	.LANCHOR22-(.LPIC530+8)
	.word	.LANCHOR86-(.LPIC572+8)
	.word	.LANCHOR87-(.LPIC573+8)
	.word	.LANCHOR25-(.LPIC574+8)
	.word	.LANCHOR31-(.LPIC532+8)
	.word	.LANCHOR30-(.LPIC533+8)
	.word	.LC118-(.LPIC534+8)
	.word	.LC119-(.LPIC535+8)
	.word	.LC120-(.LPIC536+8)
	.word	.LC121-(.LPIC537+8)
	.word	.LC122-(.LPIC538+8)
	.word	.LC123-(.LPIC539+8)
	.word	.LC124-(.LPIC540+8)
	.word	.LC125-(.LPIC541+8)
	.word	.LC126-(.LPIC542+8)
	.word	.LC127-(.LPIC543+8)
	.word	.LC128-(.LPIC544+8)
	.word	.LC129-(.LPIC545+8)
	.word	.LC130-(.LPIC546+8)
	.word	.LC131-(.LPIC547+8)
	.word	.LC132-(.LPIC548+8)
	.word	.LANCHOR27-(.LPIC549+8)
	.word	.LANCHOR28-(.LPIC550+8)
	.word	.LANCHOR29-(.LPIC551+8)
	.word	.LANCHOR74-(.LPIC563+8)
	.word	.LANCHOR73-(.LPIC565+8)
	.word	.LANCHOR19-(.LPIC566+8)
	.word	.LANCHOR20-(.LPIC567+8)
	.word	.LANCHOR21-(.LPIC568+8)
	.word	.LANCHOR22-(.LPIC569+8)
	.word	.LANCHOR2-(.LPIC552+8)
	.word	.LC94-(.LPIC553+8)
	.word	.LANCHOR52-(.LPIC555+8)
	.word	.LANCHOR1-(.LPIC559+8)
	.word	1036831949
.L1087:
	movw	r0, #64232
	movt	r0, 127
	bl	_Z13getRealOffsetm(PLT)
	mov	r3, r0
	mov	r0, r6
	blx	r3
	cmp	r0, #0
	bne	.L975
	mov	r0, r7
	mov	r1, r6
	bl	_Z12EspAndAimbotPvS_(PLT)
	add	r10, sp, #172
	add	r3, sp, #184
	add	r0, sp, #160
	mov	r1, r6
	str	r3, [sp, #36]
	mov	r8, r3
	add	fp, sp, #196
	bl	_Z15GetHeadPositionPv(PLT)
	mov	r0, r10
	mov	r1, r7
	flds	s18, [sp, #160]
	flds	s17, [sp, #164]
	flds	s16, [sp, #168]
	bl	_Z15GetHeadPositionPv(PLT)
	mov	r0, r8
	mov	r1, r7
	bl	_Z15GetHipsPositionPv(PLT)
	mov	r0, fp
	mov	r1, r6
	flds	s19, .L1113+164
	bl	_Z15GetHeadPositionPv(PLT)
	add	r3, sp, #208
	mov	r1, r7
	str	r3, [sp, #24]
	mov	r0, r3
	mov	r8, sp
	bl	_Z10CameraMainPv(PLT)
	ldr	r3, [sp, #24]
	ldmia	r3, {r0, r1, r2}
	fstmias	r8!, {s19}
	stmia	r8, {r0, r1, r2}
	add	r0, sp, #436
	ldmia	fp, {r1, r2, r3}
	add	fp, sp, #220
	bl	_Z21GetRotationToLocation7Vector3fS_(PLT)
	mov	r1, r6
	mov	r0, fp
	bl	_Z15GetHipsPositionPv(PLT)
	add	r3, sp, #232
	mov	r1, r7
	str	r3, [sp, #24]
	mov	r0, r3
	bl	_Z10CameraMainPv(PLT)
	ldr	r3, [sp, #24]
	ldmia	r3, {r0, r1, r2}
	fsts	s19, [sp]
	stmia	r8, {r0, r1, r2}
	add	r0, sp, #452
	ldmia	fp, {r1, r2, r3}
	add	fp, sp, #244
	bl	_Z21GetRotationToLocation7Vector3fS_(PLT)
	mov	r1, r6
	mov	r0, fp
	bl	_Z16GetToeTFPositionPv(PLT)
	add	r3, sp, #256
	mov	r1, r7
	str	r3, [sp, #24]
	mov	r0, r3
	bl	_Z10CameraMainPv(PLT)
	ldr	r3, [sp, #24]
	ldmia	r3, {r0, r1, r2}
	fsts	s19, [sp]
	stmia	r8, {r0, r1, r2}
	add	r0, sp, #468
	ldmia	fp, {r1, r2, r3}
	bl	_Z21GetRotationToLocation7Vector3fS_(PLT)
	flds	s15, [sp, #440]
	flds	s12, [sp, #436]
	fmuls	s15, s15, s15
	flds	s13, [sp, #444]
	flds	s14, [sp, #448]
	fmacs	s15, s12, s12
	fmacs	s15, s13, s13
	fmacs	s15, s14, s14
	fcmpezs	s15
	fmstat
	bmi	.L1089
.L1016:
	flds	s15, [sp, #456]
	flds	s12, [sp, #452]
	fmuls	s15, s15, s15
	flds	s13, [sp, #460]
	flds	s14, [sp, #464]
	fmacs	s15, s12, s12
	fmacs	s15, s13, s13
	fmacs	s15, s14, s14
	fcmpezs	s15
	fmstat
	bmi	.L1090
.L1019:
	flds	s15, [sp, #472]
	flds	s12, [sp, #468]
	fmuls	s15, s15, s15
	flds	s13, [sp, #476]
	flds	s14, [sp, #480]
	fmacs	s15, s12, s12
	fmacs	s15, s13, s13
	fmacs	s15, s14, s14
	fcmpezs	s15
	fmstat
	bmi	.L1091
.L1022:
	bl	_ZL14CurrentUIScenev(PLT)
	ldr	ip, .L1113+32
	add	r8, sp, #144
	ldr	fp, .L1113+36
.LPIC572:
	add	ip, pc, ip
	str	ip, [sp, #24]
.LPIC573:
	add	fp, pc, fp
	str	r0, [sp, #28]
	movw	r0, #24112
	movt	r0, 129
	bl	_Z13getRealOffsetm(PLT)
	mov	r3, r0
	mov	r0, r7
	blx	r3
	mov	r1, r6
	str	r0, [sp, #32]
	add	r0, sp, #268
	bl	_Z15GetHeadPositionPv(PLT)
	flds	s0, [sp, #268]
	mov	r0, r8
	mov	r1, r9
	flds	s1, [sp, #272]
	flds	s2, [sp, #276]
	bl	_ZL18WorldToScreenPointPv7Vector3(PLT)
	ldmia	r8, {r0, r1, r2}
	ldr	ip, [sp, #24]
	stmia	ip, {r0, r1, r2}
	add	r0, sp, #280
	mov	r1, r7
	bl	_Z15GetHeadPositionPv(PLT)
	flds	s0, [sp, #280]
	mov	r1, r9
	mov	r0, r8
	flds	s1, [sp, #284]
	flds	s2, [sp, #288]
	bl	_ZL18WorldToScreenPointPv7Vector3(PLT)
	ldmia	r8, {r0, r1, r2}
	stmia	fp, {r0, r1, r2}
	add	r0, sp, #292
	mov	r1, r7
	bl	_Z15GetHipsPositionPv(PLT)
	add	r0, sp, #304
	mov	r1, r6
	bl	_Z15GetHeadPositionPv(PLT)
	flds	s14, [sp, #308]
	flds	s15, [sp, #296]
	flds	s13, [sp, #292]
	fsubs	s15, s15, s14
	flds	s11, [sp, #304]
	flds	s14, [sp, #300]
	flds	s12, [sp, #312]
	fmuls	s15, s15, s15
	fsubs	s13, s13, s11
	fmacs	s15, s13, s13
	fsubs	s14, s14, s12
	fmacs	s15, s14, s14
	fsqrts	s19, s15
	fcmps	s19, s19
	fmstat
	bne	.L1092
.L1025:
	ldr	r2, .L1113+40
.LPIC574:
	add	r2, pc, r2
	ldr	r3, [r2]
	cmp	r3, #0
	ble	.L1026
	fmsr	s15, r3	@ int
	fsitos	s15, s15
.L1027:
	fcmpes	s19, s15
	fmstat
	bpl	.L975
	ldr	r3, .L1113+44
.LPIC532:
	add	r3, pc, r3
	ldrb	r3, [r3]	@ zero_extendqisi2
	cmp	r3, #0
	bne	.L1093
.L983:
	ldr	r3, .L1113+48
	ldr	r2, [sp, #28]
.LPIC533:
	add	r3, pc, r3
	ldrb	r3, [r3]	@ zero_extendqisi2
	cmp	r2, #0
	moveq	r3, #0
	andne	r3, r3, #1
	cmp	r3, #0
	beq	.L986
	ldrb	ip, [r6, #220]	@ zero_extendqisi2
	movw	r0, #36032
	movt	r0, 127
	str	ip, [sp, #24]
	bl	_Z13getRealOffsetm(PLT)
	mov	r3, r0
	mov	r0, r6
	blx	r3
	str	r0, [sp, #40]
	movw	r0, #6960
	movt	r0, 135
	bl	_Z13getRealOffsetm(PLT)
	mov	r3, r0
	mov	r0, r6
	blx	r3
	str	r0, [sp, #44]
	movw	r0, #26196
	movt	r0, 127
	bl	_Z13getRealOffsetm(PLT)
	mov	r3, r0
	mov	r0, r6
	blx	r3
	str	r0, [sp, #48]
	mov	r0, #972
	movt	r0, 129
	bl	_Z13getRealOffsetm(PLT)
	mov	r3, r0
	mov	r0, r6
	blx	r3
	str	r0, [sp, #56]
	movw	r0, #46260
	movt	r0, 136
	bl	_Z13getRealOffsetm(PLT)
	mov	r3, r0
	mov	r0, r6
	blx	r3
	str	r0, [sp, #64]
	movw	r0, #35296
	movt	r0, 127
	bl	_Z13getRealOffsetm(PLT)
	mov	r3, r0
	mov	r0, r6
	blx	r3
	str	r0, [sp, #72]
	movw	r0, #9420
	movt	r0, 132
	bl	_Z13getRealOffsetm(PLT)
	mov	r3, r0
	mov	r0, r6
	blx	r3
	str	r0, [sp, #84]
	movw	r0, #64276
	movt	r0, 127
	bl	_Z13getRealOffsetm(PLT)
	mov	r3, r0
	mov	r0, r6
	blx	r3
	str	r0, [sp, #88]
	movw	r0, #2388
	movt	r0, 129
	bl	_Z13getRealOffsetm(PLT)
	mov	r3, r0
	mov	r0, r6
	blx	r3
	str	r0, [sp, #92]
	movw	r0, #45940
	movt	r0, 129
	bl	_Z13getRealOffsetm(PLT)
	mov	r3, r0
	mov	r0, r6
	blx	r3
	str	r0, [sp, #96]
	movw	r0, #1044
	movt	r0, 129
	bl	_Z13getRealOffsetm(PLT)
	mov	r3, r0
	mov	r0, r6
	blx	r3
	str	r0, [sp, #100]
	movw	r0, #1400
	movt	r0, 129
	bl	_Z13getRealOffsetm(PLT)
	mov	r3, r0
	mov	r0, r6
	blx	r3
	str	r0, [sp, #104]
	movw	r0, #9508
	movt	r0, 129
	bl	_Z13getRealOffsetm(PLT)
	mov	r3, r0
	mov	r0, r6
	blx	r3
	str	r0, [sp, #108]
	mov	r0, r6
	bl	_ZL12get_NickNamePv(PLT)
	add	r6, sp, #484
	mov	r1, #0
	mov	r2, #128
	mov	fp, r0
	mov	r0, r6
	bl	memset(PLT)
	fcvtds	d7, s19
	ldr	r1, .L1113+52
	mov	r0, r6
.LPIC534:
	add	r1, pc, r1
	fmrrd	r8, r9, d7
	fmrs	r2, s14	@ int
	mov	r3, r9
	bl	sprintf(PLT)
	mov	r0, r6
	bl	_ZL6U3DStrPKc(PLT)
	mov	r1, fp
	mov	r2, r0
	ldr	r0, [sp, #28]
	bl	_ZL17ShowAssistantTextPvP11_monoStringS1_(PLT)
	mov	r1, #0
	mov	r2, #128
	mov	r0, r6
	bl	memset(PLT)
	ldr	r1, .L1113+56
	mov	r3, r9
	mov	r2, r8
.LPIC535:
	add	r1, pc, r1
	mov	r0, r6
	bl	sprintf(PLT)
	mov	r0, r6
	bl	_ZL6U3DStrPKc(PLT)
	mov	r1, #0
	mov	r2, #128
	str	r0, [sp, #52]
	mov	r0, r6
	bl	memset(PLT)
	ldr	r1, .L1113+60
	mov	r3, r9
	mov	r2, r8
.LPIC536:
	add	r1, pc, r1
	mov	r0, r6
	bl	sprintf(PLT)
	mov	r0, r6
	bl	_ZL6U3DStrPKc(PLT)
	mov	r1, #0
	mov	r2, #128
	str	r0, [sp, #60]
	mov	r0, r6
	bl	memset(PLT)
	ldr	r1, .L1113+64
	mov	r3, r9
	mov	r2, r8
.LPIC537:
	add	r1, pc, r1
	mov	r0, r6
	bl	sprintf(PLT)
	mov	r0, r6
	bl	_ZL6U3DStrPKc(PLT)
	mov	r1, #0
	mov	r2, #128
	str	r0, [sp, #68]
	mov	r0, r6
	bl	memset(PLT)
	ldr	r1, .L1113+68
	mov	r3, r9
	mov	r2, r8
.LPIC538:
	add	r1, pc, r1
	mov	r0, r6
	bl	sprintf(PLT)
	mov	r0, r6
	bl	_ZL6U3DStrPKc(PLT)
	mov	r1, #0
	mov	r2, #128
	str	r0, [sp, #76]
	mov	r0, r6
	bl	memset(PLT)
	ldr	r1, .L1113+72
	mov	r3, r9
	mov	r2, r8
.LPIC539:
	add	r1, pc, r1
	mov	r0, r6
	bl	sprintf(PLT)
	mov	r0, r6
	bl	_ZL6U3DStrPKc(PLT)
	mov	r1, #0
	mov	r2, #128
	str	r0, [sp, #80]
	mov	r0, r6
	bl	memset(PLT)
	ldr	r1, .L1113+76
	mov	r3, r9
	mov	r2, r8
.LPIC540:
	add	r1, pc, r1
	mov	r0, r6
	bl	sprintf(PLT)
	mov	r0, r6
	bl	_ZL6U3DStrPKc(PLT)
	mov	r1, #0
	mov	r2, #128
	str	r0, [sp, #112]
	mov	r0, r6
	bl	memset(PLT)
	ldr	r1, .L1113+80
	mov	r3, r9
	mov	r2, r8
.LPIC541:
	add	r1, pc, r1
	mov	r0, r6
	bl	sprintf(PLT)
	mov	r0, r6
	bl	_ZL6U3DStrPKc(PLT)
	mov	r1, #0
	mov	r2, #128
	str	r0, [sp, #116]
	mov	r0, r6
	bl	memset(PLT)
	ldr	r1, .L1113+84
	mov	r3, r9
	mov	r2, r8
.LPIC542:
	add	r1, pc, r1
	mov	r0, r6
	bl	sprintf(PLT)
	mov	r0, r6
	bl	_ZL6U3DStrPKc(PLT)
	mov	r1, #0
	mov	r2, #128
	str	r0, [sp, #120]
	mov	r0, r6
	bl	memset(PLT)
	ldr	r1, .L1113+88
	mov	r3, r9
	mov	r2, r8
.LPIC543:
	add	r1, pc, r1
	mov	r0, r6
	bl	sprintf(PLT)
	mov	r0, r6
	bl	_ZL6U3DStrPKc(PLT)
	mov	r1, #0
	mov	r2, #128
	str	r0, [sp, #124]
	mov	r0, r6
	bl	memset(PLT)
	ldr	r1, .L1113+92
	mov	r3, r9
	mov	r2, r8
.LPIC544:
	add	r1, pc, r1
	mov	r0, r6
	bl	sprintf(PLT)
	mov	r0, r6
	bl	_ZL6U3DStrPKc(PLT)
	mov	r1, #0
	mov	r2, #128
	str	r0, [sp, #128]
	mov	r0, r6
	bl	memset(PLT)
	ldr	r1, .L1113+96
	mov	r3, r9
	mov	r2, r8
.LPIC545:
	add	r1, pc, r1
	mov	r0, r6
	bl	sprintf(PLT)
	mov	r0, r6
	bl	_ZL6U3DStrPKc(PLT)
	mov	r1, #0
	mov	r2, #128
	str	r0, [sp, #132]
	mov	r0, r6
	bl	memset(PLT)
	ldr	r1, .L1113+100
	mov	r3, r9
	mov	r2, r8
.LPIC546:
	add	r1, pc, r1
	mov	r0, r6
	bl	sprintf(PLT)
	mov	r0, r6
	bl	_ZL6U3DStrPKc(PLT)
	mov	r1, #0
	mov	r2, #128
	str	r0, [sp, #136]
	mov	r0, r6
	bl	memset(PLT)
	ldr	r1, .L1113+104
	mov	r3, r9
	mov	r2, r8
.LPIC547:
	add	r1, pc, r1
	mov	r0, r6
	bl	sprintf(PLT)
	mov	r0, r6
	bl	_ZL6U3DStrPKc(PLT)
	mov	r1, #0
	mov	r2, #128
	str	r0, [sp, #140]
	mov	r0, r6
	bl	memset(PLT)
	ldr	r1, .L1113+108
	mov	r2, r8
	mov	r3, r9
.LPIC548:
	add	r1, pc, r1
	mov	r0, r6
	bl	sprintf(PLT)
	mov	r0, r6
	bl	_ZL6U3DStrPKc(PLT)
	ldr	ip, [sp, #24]
	cmp	ip, #0
	mov	r2, r0
	bne	.L1094
	ldr	r3, [sp, #40]
	cmp	r3, #0
	bne	.L1095
	ldr	r3, [sp, #44]
	cmp	r3, #0
	bne	.L1096
	ldr	r3, [sp, #48]
	cmp	r3, #0
	bne	.L1097
	ldr	r3, [sp, #56]
	cmp	r3, #0
	bne	.L1098
	ldr	r3, [sp, #64]
	cmp	r3, #0
	bne	.L1099
	ldr	r3, [sp, #72]
	cmp	r3, #0
	bne	.L1100
	ldr	r3, [sp, #84]
	cmp	r3, #0
	bne	.L1101
	ldr	r3, [sp, #88]
	cmp	r3, #0
	bne	.L1102
	ldr	r3, [sp, #92]
	cmp	r3, #0
	bne	.L1103
	ldr	r3, [sp, #96]
	cmp	r3, #0
	bne	.L1104
	ldr	r3, [sp, #100]
	cmp	r3, #0
	bne	.L1105
	ldr	r3, [sp, #104]
	cmp	r3, #0
	bne	.L1106
	ldr	r3, [sp, #108]
	cmp	r3, #0
	beq	.L986
	ldr	r0, [sp, #28]
	mov	r1, fp
	bl	_ZL17ShowAssistantTextPvP11_monoStringS1_(PLT)
.L986:
	ldr	r3, .L1113+112
	ldr	r2, [sp, #32]
.LPIC549:
	add	r3, pc, r3
	ldrb	r3, [r3]	@ zero_extendqisi2
	cmp	r2, #0
	moveq	r3, #0
	andne	r3, r3, #1
	cmp	r3, #0
	beq	.L1001
	ldr	r3, .L1113+116
.LPIC550:
	add	r3, pc, r3
	ldrb	r3, [r3]	@ zero_extendqisi2
	cmp	r3, #0
	ldr	r3, [sp, #36]
	ldmia	r3, {r0, r1, r2}
	beq	.L1002
	add	r6, sp, #316
	fsts	s18, [sp, #328]
	stmia	r6, {r0, r1, r2}
	movw	r0, #33184
	movt	r0, 355
	fsts	s17, [sp, #332]
	fsts	s16, [sp, #336]
	bl	_Z13getRealOffsetm(PLT)
	add	r3, sp, #328
	mov	ip, r0
.L1083:
	ldmia	r3, {r0, r1, r2}
	stmia	sp, {r0, r1, r2}
	ldr	r0, [sp, #32]
	ldmia	r6, {r1, r2, r3}
	blx	ip
.L1001:
	ldr	r3, .L1113+120
.LPIC551:
	add	r3, pc, r3
	ldrb	r3, [r3]	@ zero_extendqisi2
	cmp	r3, #0
	bne	.L1107
.L1003:
	ldr	r3, .L1113+124
.LPIC563:
	add	r3, pc, r3
	ldrb	r3, [r3]	@ zero_extendqisi2
	cmp	r3, #0
	bne	.L1108
.L1005:
	ldr	r3, .L1113+128
.LPIC565:
	add	r3, pc, r3
	ldrb	r3, [r3]	@ zero_extendqisi2
	cmp	r3, #0
	bne	.L1109
.L1007:
	ldr	r3, .L1113+132
.LPIC566:
	add	r3, pc, r3
	ldrb	r3, [r3]	@ zero_extendqisi2
	cmp	r3, #0
	bne	.L1110
.L1009:
	ldr	r3, .L1113+136
.LPIC567:
	add	r3, pc, r3
	ldrb	r3, [r3]	@ zero_extendqisi2
	cmp	r3, #0
	bne	.L1111
.L1028:
	ldr	r3, .L1113+140
.LPIC568:
	add	r3, pc, r3
	ldrb	r3, [r3]	@ zero_extendqisi2
	cmp	r3, #0
	bne	.L1112
.L1029:
	ldr	r3, .L1113+144
.LPIC569:
	add	r3, pc, r3
	ldrb	r3, [r3]	@ zero_extendqisi2
	cmp	r3, #0
	beq	.L975
	movw	r0, #45940
	movt	r0, 129
	bl	_Z13getRealOffsetm(PLT)
	mov	r3, r0
	mov	r0, r7
	blx	r3
	cmp	r0, #0
	beq	.L975
	mov	r0, r7
	flds	s0, [sp, #436]
	flds	s1, [sp, #440]
	flds	s2, [sp, #444]
	flds	s3, [sp, #448]
	bl	_ZL7set_aimPv10Quaternion(PLT)
	b	.L975
.L1089:
	fsqrts	s14, s15
	fcmps	s14, s14
	fmstat
	beq	.L1016
	fmrs	r0, s15
	bl	sqrtf(PLT)
	b	.L1016
.L1091:
	fsqrts	s14, s15
	fcmps	s14, s14
	fmstat
	beq	.L1022
	fmrs	r0, s15
	bl	sqrtf(PLT)
	b	.L1022
.L1090:
	fsqrts	s14, s15
	fcmps	s14, s14
	fmstat
	beq	.L1019
	fmrs	r0, s15
	bl	sqrtf(PLT)
	b	.L1019
.L1107:
	ldr	r8, .L1113+148
.LPIC552:
	add	r8, pc, r8
	ldr	r3, [r8]
	cmp	r3, #0
	beq	.L1003
	ldr	r9, .L1113+152
	movw	r1, #16884
	movt	r1, 657
	ldr	r6, .L1113+156
.LPIC553:
	add	r9, pc, r9
.LPIC555:
	add	r6, pc, r6
	mov	r0, r9
	bl	_Z19AgetAbsoluteAddressPKcl(PLT)
	ldr	lr, [r6, #12]
	ldmia	r6, {r1, r2, r3}
	mov	ip, r0
	ldr	r0, [r8]
	str	lr, [sp]
	blx	ip
	movw	r1, #17048
	mov	r0, r9
	movt	r1, 657
	bl	_Z19AgetAbsoluteAddressPKcl(PLT)
	ldr	lr, [r6, #12]
	ldmia	r6, {r1, r2, r3}
	add	r6, sp, #364
	mov	ip, r0
	ldr	r0, [r8]
	str	lr, [sp]
	blx	ip
	ldmia	r10, {r0, r1, r2}
	movw	lr, #39322
	ldr	r3, .L1113+160
	mov	ip, #0
	movt	lr, 16153
	str	ip, [sp, #388]	@ float
.LPIC559:
	add	r3, pc, r3
	str	ip, [sp, #396]	@ float
	stmia	r6, {r0, r1, r2}
	movw	r0, #7836
	movt	r0, 223
	ldr	r9, [r3]
	str	lr, [sp, #392]	@ float
	fsts	s18, [sp, #376]
	fsts	s17, [sp, #380]
	fsts	s16, [sp, #384]
	bl	_Z13getRealOffsetm(PLT)
	add	r3, sp, #376
	add	lr, sp, #12
	mov	ip, r0
	ldmia	r3, {r0, r1, r2}
	add	r3, sp, #388
	stmia	sp, {r0, r1, r2}
	ldmia	r3, {r0, r1, r2}
	stmia	lr, {r0, r1, r2}
	mov	r0, r9
	ldmia	r6, {r1, r2, r3}
	blx	ip
	movw	r0, #17364
	movt	r0, 657
	ldr	r6, [r8]
	bl	_Z13getRealOffsetm(PLT)
	mov	r1, #2
	mov	r3, r0
	mov	r0, r6
	blx	r3
	ldmia	r10, {r0, r1, r2}
	add	r6, sp, #400
	ldr	r9, [r8]
	stmia	r6, {r0, r1, r2}
	movw	r0, #17536
	movt	r0, 657
	bl	_Z13getRealOffsetm(PLT)
	ldr	lr, [sp, #408]
	ldmia	r6, {r2, r3}
	mov	r1, #0
	str	lr, [sp]
	mov	ip, r0
	mov	r0, r9
	blx	ip
	movw	r0, #17536
	movt	r0, 657
	ldr	r6, [r8]
	fsts	s18, [sp, #412]
	fsts	s17, [sp, #416]
	fsts	s16, [sp, #420]
	bl	_Z13getRealOffsetm(PLT)
	ldr	lr, [sp, #420]
	add	r3, sp, #412
	mov	r1, #1
	ldmia	r3, {r2, r3}
	str	lr, [sp]
	mov	ip, r0
	mov	r0, r6
	blx	ip
	b	.L1003
.L1002:
	add	r6, sp, #340
	fsts	s18, [sp, #352]
	stmia	r6, {r0, r1, r2}
	movw	r0, #56612
	movt	r0, 351
	fsts	s17, [sp, #356]
	fsts	s16, [sp, #360]
	bl	_Z13getRealOffsetm(PLT)
	add	r3, sp, #352
	mov	ip, r0
	b	.L1083
.L1094:
	ldr	r0, [sp, #28]
	mov	r1, fp
	ldr	r2, [sp, #52]
	bl	_ZL17ShowAssistantTextPvP11_monoStringS1_(PLT)
	b	.L986
.L1026:
	mov	r3, #140
	flds	s15, .L1115
	str	r3, [r2]
	b	.L1027
.L1112:
	movw	r0, #6960
	movt	r0, 135
	bl	_Z13getRealOffsetm(PLT)
	mov	r3, r0
	mov	r0, r7
	blx	r3
	cmp	r0, #0
	beq	.L1029
	mov	r0, r7
	flds	s0, [sp, #436]
	flds	s1, [sp, #440]
	flds	s2, [sp, #444]
	flds	s3, [sp, #448]
	bl	_ZL7set_aimPv10Quaternion(PLT)
	b	.L1029
.L1093:
	mov	r0, r6
	bl	_ZL12get_NickNamePv(PLT)
	mov	r9, r0
	movw	r0, #15624
	movt	r0, 146
	bl	_Z13getRealOffsetm(PLT)
	mov	r8, r0
	bl	_ZL14CurrentUIScenev(PLT)
	cmp	r0, #0
	beq	.L983
	movw	r2, #52429
	mov	r1, r9
	movt	r2, 15820
	blx	r8
	b	.L983
.L1111:
	movw	r0, #36032
	movt	r0, 127
	bl	_Z13getRealOffsetm(PLT)
	mov	r3, r0
	mov	r0, r7
	blx	r3
	cmp	r0, #0
	beq	.L1028
	mov	r0, r7
	flds	s0, [sp, #436]
	flds	s1, [sp, #440]
	flds	s2, [sp, #444]
	flds	s3, [sp, #448]
	bl	_ZL7set_aimPv10Quaternion(PLT)
	b	.L1028
.L1110:
	mov	r0, r7
	flds	s0, [sp, #436]
	flds	s1, [sp, #440]
	flds	s2, [sp, #444]
	flds	s3, [sp, #448]
	bl	_ZL7set_aimPv10Quaternion(PLT)
	b	.L1009
.L1109:
	movw	r0, #36032
	movt	r0, 127
	bl	_Z13getRealOffsetm(PLT)
	mov	r3, r0
	mov	r0, r7
	blx	r3
	cmp	r0, #0
	beq	.L1008
	mov	r0, #0
	bl	time(PLT)
	b	.L1007
.L1108:
	ldr	r0, .L1115+20
	movw	r1, #5512
	movt	r1, 129
.LPIC564:
	add	r0, pc, r0
	bl	_Z19AgetAbsoluteAddressPKcl(PLT)
	mov	r3, r0
	mov	r0, r7
	blx	r3
	cmp	r0, #0
	beq	.L1005
	bl	_ZL22Component_GetTransformPv(PLT)
	mov	r6, r0
	movw	r0, #8564
	movt	r0, 671
	bl	_Z13getRealOffsetm(PLT)
	flds	s15, .L1115+4
	add	r1, sp, #424
	fsts	s18, [sp, #424]
	fadds	s15, s17, s15
	fsts	s16, [sp, #432]
	fsts	s15, [sp, #428]
	mov	r3, r0
	mov	r0, r6
	blx	r3
	b	.L1005
.L1008:
	bl	time(PLT)
	mov	r0, r7
	bl	_ZL22Component_GetTransformPv(PLT)
	mov	r6, r0
	movw	r0, #8564
	movt	r0, 671
	bl	_Z13getRealOffsetm(PLT)
	flds	s13, .L1115+8
	add	r1, sp, #424
	flds	s14, .L1115+12
	flds	s15, .L1115+16
	fadds	s18, s18, s13
	fadds	s17, s17, s14
	fsts	s18, [sp, #424]
	fadds	s16, s16, s15
	fsts	s17, [sp, #428]
	mov	r3, r0
	mov	r0, r6
	fsts	s16, [sp, #432]
	blx	r3
	b	.L1007
.L1095:
	ldr	r0, [sp, #28]
	mov	r1, fp
	ldr	r2, [sp, #60]
	bl	_ZL17ShowAssistantTextPvP11_monoStringS1_(PLT)
	b	.L986
.L1096:
	ldr	r0, [sp, #28]
	mov	r1, fp
	ldr	r2, [sp, #68]
	bl	_ZL17ShowAssistantTextPvP11_monoStringS1_(PLT)
	b	.L986
.L1097:
	ldr	r0, [sp, #28]
	mov	r1, fp
	ldr	r2, [sp, #76]
	bl	_ZL17ShowAssistantTextPvP11_monoStringS1_(PLT)
	b	.L986
.L1098:
	ldr	r0, [sp, #28]
	mov	r1, fp
	ldr	r2, [sp, #80]
	bl	_ZL17ShowAssistantTextPvP11_monoStringS1_(PLT)
	b	.L986
.L1099:
	ldr	r0, [sp, #28]
	mov	r1, fp
	ldr	r2, [sp, #112]
	bl	_ZL17ShowAssistantTextPvP11_monoStringS1_(PLT)
	b	.L986
.L1100:
	ldr	r0, [sp, #28]
	mov	r1, fp
	ldr	r2, [sp, #116]
	bl	_ZL17ShowAssistantTextPvP11_monoStringS1_(PLT)
	b	.L986
.L1101:
	ldr	r0, [sp, #28]
	mov	r1, fp
	ldr	r2, [sp, #120]
	bl	_ZL17ShowAssistantTextPvP11_monoStringS1_(PLT)
	b	.L986
.L1102:
	ldr	r0, [sp, #28]
	mov	r1, fp
	ldr	r2, [sp, #124]
	bl	_ZL17ShowAssistantTextPvP11_monoStringS1_(PLT)
	b	.L986
.L1088:
	bl	__stack_chk_fail(PLT)
.L1103:
	ldr	r0, [sp, #28]
	mov	r1, fp
	ldr	r2, [sp, #128]
	bl